(dp0
S'PDVVVVTSMLTDPSHITAETAR'
p1
I1486
sS'PCEPEPDVAVLTS'
p2
I380
sS'SQLP'
p3
I89
sS'PSHITAETAKRRL'
p4
I397
sS'LTSMLTDPSHITAETAK'
p5
I492
sS'LTDPSHITAETAKRRLA'
p6
I496
sS'EPEPDVVVVTSMLTDPSHITAETARRRLARG'
p7
I1609
sS'EPEP'
p8
I94
sS'PDVVVVTSMLTDPSH'
p9
I1333
sS'VTSMLTDPSHITAETARR'
p10
I1409
sS'AETARRRLARGS'
p11
I1275
sS'EPDVTVLTSMLTDPSHITAETAKRR'
p12
I1006
sS'AKRRL'
p13
I153
sS'TSMLT'
p14
I139
sS'VGSQLPCEPEPDVVVVTSMLTDPSHITAETA'
p15
I1602
sS'GS'
p16
I17
sS'PDVVVVTSMLTDP'
p17
I1285
sS'TVLT'
p18
I761
sS'VGSQLPCEPEPDVVVVTSMLT'
p19
I1457
sS'GSQLPCEPEPDVAVLTSMLTDPSHITAET'
p20
I688
sS'GSQLPCEPEPDVTVLTSMLTD'
p21
I942
sS'SQLPCEPEPDVVV'
p22
I1277
sS'DPSHITAETARRRL'
p23
I1318
sS'LPCEPEPDVAVLTSMLTDPSHITA'
p24
I621
sS'VAVLTSMLTDPSHITAE'
p25
I489
sS'TDPSHITA'
p26
I245
sS'PCEPEPDVVVVTSMLTDPSHI'
p27
I1462
sS'SQLPCEPEPDVVVV'
p28
I1301
sS'TAKRRL'
p29
I187
sS'SQLPCEPEPDVTVLTSMLTDPSHITAETAK'
p30
I1063
sS'VAVLTSMLTDP'
p31
I330
sS'QLPCEPEPDVVVVTSMLTDPSH'
p32
I1479
sS'EPDVAVLTSMLTDPSHIT'
p33
I509
sS'GSQL'
p34
I88
sS'TSMLTDPSHITAETAKRRLAR'
p35
I579
sS'QLPCEPEPDVTVLTSMLTDPSHIT'
p36
I986
sS'LPCEPE'
p37
I162
sS'ITAETAKRR'
p38
I282
sS'PDVAVLTSMLTDPSHITAETA'
p39
I573
sS'LPCEPEPDVAVL'
p40
I351
sS'CEPEPDVVVV'
p41
I1215
sS'DVAVLTSMLTDPS'
p42
I386
sS'TVLTSMLTDPSHIT'
p43
I856
sS'VLT'
p44
I64
sS'QLPCEPEPDVVVVTSMLT'
p45
I1397
sS'EPEPDVVVVTSMLTDPSHITAETARRRLAR'
p46
I1599
sS'TVLTSMLTDPSHITAETAKRRLAR'
p47
I996
sS'PCEPEPDVTVLTSMLTDPSHITAETAKRRLA'
p48
I1076
sS'VVVTSMLTDPSHITAETARR'
p49
I1450
sS'DVTVLTS'
p50
I777
sS'PEPDVVV'
p51
I1161
sS'CEPEPDVAVLTSM'
p52
I381
sS'PCEPEPDVTVLTSMLTDPSHITAETA'
p53
I1016
sS'SMLTDPSHITAE'
p54
I364
sS'QLPCEPEPDVVVVTSMLTDPSHITAE'
p55
I1545
sS'CEPEPDVTVLT'
p56
I810
sS'EPDVTVLTSMLTDPSHITAETAKR'
p57
I992
sS'PEPDVVVVTS'
p58
I1217
sS'PCEPEPDV'
p59
I230
sS'PDVTVLTSMLTDPSHITAETAKR'
p60
I979
sS'PSHITAETA'
p61
I279
sS'VVTSMLTDPSHITAETARRRL'
p62
I1471
sS'TVLTSMLTD'
p63
I796
sS'PCEPEPDVTVLTSMLTDPSHITAETAKRRLARG'
p64
I1093
sS'TAET'
p65
I113
sS'VGSQLPCEPEPDVAVL'
p66
I453
sS'PDVAVLT'
p67
I202
sS'V'
p68
I0
sS'PCEPEPDVAVLTSMLTDPSHITAETAKRRLARGS'
p69
I737
sS'ARRRLA'
p70
I1158
sS'SHITAETARRRLARGS'
p71
I1370
sS'EPEPDVTVLTSMLTDPSHI'
p72
I920
sS'EPDVVVVTSMLTDPSHI'
p73
I1380
sS'LPCEPEPDVTVL'
p74
I820
sS'RLA'
p75
I83
sS'PDVAVLTSMLTDPSHITAETAK'
p76
I592
sS'PDVAVLTSMLTDPS'
p77
I412
sS'DPS'
p78
I71
sS'CEPEPDVAVLTSMLTDPSHITAETAKR'
p79
I668
sS'VGSQLPCEPEPDVAVLTSMLT'
p80
I563
sS'LA'
p81
I47
sS'LK'
p82
I1651
sS'LT'
p83
I30
sS'QLPCEPEPDVTVLTSMLTDPSHITAET'
p84
I1028
sS'LP'
p85
I20
sS'EPEPDVTVLTSMLTDPSH'
p86
I906
sS'QLPCEPEPDVVVVTSMLTDPSHIT'
p87
I1514
sS'PSHITAE'
p88
I214
sS'A'
p89
I9
sS'VGSQLPCEPEPDVAVLTSMLTD'
p90
I582
sS'VLTSMLTDPSHI'
p91
I361
sS'CEPEPDVAVLTSMLTDPSHITAETAKRRLARGS'
p92
I731
sS'QLPCEPEPDVTVLTSM'
p93
I874
sS'AETAKRRLAR'
p94
I315
sS'PEPDVVVVTSML'
p95
I1260
sS'VGSQLPCEPEPDVAVLTSMLTDPSHITA'
p96
I675
sS'VTSMLTDPSHITAETARRRL'
p97
I1452
sS'LTDPSHITAETAKRRLAR'
p98
I519
sS'GSQLPCEPEPDVAVLTSMLTDPSHITAETAKRRLARG'
p99
I748
sS'EPDVAVLTSMLTDPSHITAETAKRRLA'
p100
I671
sS'PCEPEPDVVVVTSMLTDPSHITAETARRRLARGS'
p101
I1631
sS'PEPDVTVLTSMLTDPSHITAET'
p102
I963
sS'QLPCEPEPDVVVVTSMLTDPSHITAET'
p103
I1559
sS'CEPEPDVAVL'
p104
I294
sS'PEPDVAVLTSMLTDPSHITAETAKRRLA'
p105
I683
sS'EPDVAVLTSMLTDPSHITAE'
p106
I552
sS'QLPCEPEP'
p107
I228
sS'CEPEPDVAVLTSMLTDPSHITAET'
p108
I623
sS'GSQLPCEPEPDVAV'
p109
I403
sS'LPCEPEPDVTVLTSMLTDPSHITA'
p110
I987
sS'PDVTVLTSM'
p111
I793
sS'VGSQLPCE'
p112
I225
sS'AETARRR'
p113
I1171
sS'VVTSML'
p114
I1152
sS'PEPDVTVLTSMLTD'
p115
I851
sS'EPEPDVTVLTS'
p116
I811
sS'VVVTSMLTDPS'
p117
I1243
sS'QLPCEPEPDVVVVTSMLTDPSHITAETARRRL'
p118
I1614
sS'PEPDVAVLTSMLTDPSHITAETAKRRLARG'
p119
I706
sS'PDVVVVTSMLTDPS'
p120
I1309
sS'SMLTDPSHITAETARRRL'
p121
I1411
sS'HITAETARRRL'
p122
I1249
sS'EPDVAVLTSMLTD'
p123
I384
sS'VGSQLPCEPEPDVTVLTSMLTDPSHITAE'
p124
I1050
sS'LPCEPEPDVAVLTSMLTDPSHITAETA'
p125
I666
sS'VTVLTSM'
p126
I778
sS'EPDV'
p127
I96
sS'SQLPCEPEPDVVVVTSMLTDPSHITAETARR'
p128
I1604
sS'LPCEPEPDVAVLTSMLTDPSHITAETAKRR'
p129
I702
sS'LARG'
p130
I121
sS'VT'
p131
I753
sS'MLTD'
p132
I105
sS'CEPEPDVVVVTSMLTDPS'
p133
I1400
sS'DVTVLTSMLTDPSHITAETAKRRLARGS'
p134
I1049
sS'EPEPDVTVLTSMLTDPS'
p135
I892
sS'GSQLPCEPEPDVTVLTSMLTDPSHITAETAKRRL'
p136
I1096
sS'VGSQLPCEPEPDVAVLTSMLTDPSHI'
p137
I648
sS'EPDVTVLTSMLTDPSHI'
p138
I894
sS'TSMLTDP'
p139
I208
sS'PCEPEPDVVVVTSMLTDPSHITAETARR'
p140
I1574
sS'EPDVTVLTSM'
p141
I802
sS'VTVLTSMLTDPSHITAETA'
p142
I925
sS'CEPEPDVTVLTSMLTDPSHIT'
p143
I947
sS'VTSMLTDPSHITAETARRRLARG'
p144
I1509
sS'B'
p145
I1653
sS'PEPDVAVLTSMLTDPSHITAETAKRRLAR'
p146
I695
sS'CEPEPDVTVLTSMLTDPSHITAETAKRRL'
p147
I1056
sS'SQLPCEPEPDVAVLTSMLTDPSHITAET'
p148
I677
sS'SHIT'
p149
I110
sS'MLTDPSHITAETA'
p150
I393
sS'TARRRLAR'
p151
I1191
sS'EPEPDVTVLT'
p152
I800
sS'PSHITAET'
p153
I247
sS'EPDVVVVTSMLTDPSHITA'
p154
I1425
sS'VAVLTSML'
p155
I237
sS'ITAETARRRLARGS'
p156
I1322
sS'SQLPCEPEPDVAVLTSMLTDPSHITAETAKRRLARG'
p157
I745
sS'LTDPSH'
p158
I177
sS'EPEPDVAVLTSMLT'
p159
I409
sS'AVLTSM'
p160
I171
sS'QLPCEPEPDVTVLT'
p161
I846
sS'LPCEP'
p162
I127
sS'PCEPEPDVA'
p163
I262
sS'LPCEPEPDVTVLTSMLTDPSHITAETAKRRL'
p164
I1075
sS'VGSQLPCEPEPDVTVLTSMLTDPSH'
p165
I997
sS'VGSQLPCEPEPDVVVVTSMLTDPSHITAET'
p166
I1592
sS'PCEPEPDVTVLTSMLTDP'
p167
I904
sS'POP'
p168
I1660
sS'PCEPEPDVV'
p169
I1194
sS'PCEPEPDVT'
p170
I788
sS'QLPCEPEPDVAVLTSM'
p171
I456
sS'PSHITAETAKRRLARG'
p172
I475
sS'VGSQLPCEPEPDVTVLTSMLTDPSHITAETAKRRLARG'
p173
I1113
sS'GSQLPCEPEPDVTVLTSMLTDPSHITAETAKRR'
p174
I1089
sS'CEPEPDVVVVTSMLTDPSHITAETARRRLARG'
p175
I1617
sS'SQLPCEPEPDVTVLTSMLTDPSHI'
p176
I985
sS'QLPCEPEPDVVVVTSMLTDPSHITAETARRRLAR'
p177
I1629
sS'QLPCEPEPDVAVLTSMLT'
p178
I503
sS'PDVAVL'
p179
I168
sS'PCEPEPDVVVVTSML'
p180
I1328
sS'CEPEPDVAVLTS'
p181
I353
sS'TARR'
p182
I1131
sS'QL'
p183
I19
sS'EPDVAVLTSMLTDPSHITAETA'
p184
I591
sS'LTDPSHITAETARRRLARGS'
p185
I1456
sS'LPCEPEPDVAVLTSMLTDPSHITAETAKRRLAR'
p186
I729
sS'EPEPDVAVLTSMLTDPSHITAETAKRRLAR'
p187
I705
sS'VLTSMLTDPSHITAE'
p188
I442
sS'VVTSMLTDPSHITAETARRRLA'
p189
I1490
sS'ITAETARRRL'
p190
I1228
sS'SQLPCEPEPDVTVL'
p191
I845
sS'EPEPDVAVLTSMLTDPSHITAETAKR'
p192
I655
sS'VGSQLPCEPEPDVTVLTSMLTDPSHITAETAKRR'
p193
I1095
sS'EPDVTVLTSMLTDP'
p194
I852
sS'LPCEPEPDVAVLTSMLTD'
p195
I504
sS'SMLTDPSHITAETARR'
p196
I1364
sS'QLPCEPEPDVVVVTSMLTDPSHI'
p197
I1497
sS'CEPEPDVTVLTSMLTDPSHITAE'
p198
I975
sS'DVAVLTSMLTDPSHIT'
p199
I464
sS'VLTSMLTDPSHITAETAKRRLAR'
p200
I614
sS'GSQLPCEPEPDVAVLTSMLTDPSHITAETAKR'
p201
I718
sS'ETARRRLARG'
p202
I1231
sS'PDVAVLTSMLTDPSH'
p203
I438
sS'SQLPCEPEPDVAVLTSMLT'
p204
I524
sS'LTDPSHITAETAR'
p205
I1291
sS'GSQLPCEPEPDVAVLT'
p206
I454
sS'SQLPCEPEPDVVVVTSMLTDPSHITAETARRRL'
p207
I1621
sS'AET'
p208
I77
sS'LARGS'
p209
I157
sS'TDPSHITAE'
p210
I277
sS'DPSHITAETARRRLA'
p211
I1343
sS'EPEPDVVVVTSMLTD'
p212
I1330
sS'LPCEPEPDVVVVTSM'
p213
I1327
sS'HITAETARRRLAR'
p214
I1296
sS'EPEPDVTVLTSMLTDPSHIT'
p215
I934
sS'GSQLPCEPEPDVAVLTSMLTDPSHITAETA'
p216
I699
sS'LPCE'
p217
I91
sS'PEPDVVVVTSMLTDPSH'
p218
I1379
sS'VTVLTSMLTDPSHITAETAKRRL'
p219
I981
sS'SQLPCEPEPDVVVVTSMLTDPSHITAETARRRLARG'
p220
I1639
sS'EPDVTVLTS'
p221
I792
sS'EPDVTVLTSMLTDPSH'
p222
I880
sS'TAETARRRLA'
p223
I1229
sS'EPEPDVAVLT'
p224
I295
sS'C'
p225
I6
sS'SMLTDPSHITAETA'
p226
I419
sS'DVVVVTSMLTDPS'
p227
I1286
sS'VLTSMLTDPSHITAETAKRRLARGS'
p228
I647
sS'SQLPCEPEPDVTV'
p229
I831
sS'QLPCEPEPDVVVVTSMLTDPS'
p230
I1460
sS'PSH'
p231
I72
sS'VGSQLPCEPEPDVVVVTSMLTDPSHITAETARRR'
p232
I1626
sS'TSMLTDPSHITAETAKRRL'
p233
I538
sS'AVLTSMLTDPSHITAETAKRR'
p234
I576
sS'HITA'
p235
I111
sS'RRRLARG'
p236
I1175
sS'VVVVTSMLTDPS'
p237
I1264
sS'VTVLTSMLTDP'
p238
I816
sS'VGSQLPCEPEPDVAVLTSMLTDP'
p239
I600
sS'CEPEPDVVVVTSMLT'
p240
I1329
sS'SMLTDPSHITAETAKRR'
p241
I494
sS'QLPCEPEPDVTVLTSMLTDPSHITA'
p242
I1000
sS'SQLPCEPEPDVVVVTSMLTDPS'
p243
I1478
sS'ITAE'
p244
I112
sS'DVVVVTSMLTDPSHITAET'
p245
I1427
sS'SHITAETA'
p246
I248
sS'GSQLPCEPEPDVAVLTSMLTDP'
p247
I583
sS'VGSQLPCEPEPDVAVLTSMLTDPSHITAETAKRRLARG'
p248
I750
sS'VGSQLPCEPEPDVVVVTSMLTDPSHITAETARR'
p249
I1619
sS'QLPCEPEPDVVVVTSMLTDP'
p250
I1440
sS'VVTSMLTDPSHIT'
p251
I1289
sS'TVL'
p252
I757
sS'TDPSHIT'
p253
I212
sS'VTSMLTDPSHIT'
p254
I1267
sS'PDVAVLTSMLTDPSHITAE'
p255
I532
sS'QLPCEPEPDVVVVTSMLTDPSHITAETAR'
p256
I1584
sS'CE'
p257
I22
sS'CEPEPD'
p258
I164
sS'CEPEPDVTVL'
p259
I799
sS'QLPCEPEPDVTVLTSMLTDPSHITAETAKRR'
p260
I1074
sS'CEPE'
p261
I93
sS'PDVAVLTSML'
p262
I298
sS'TARRR'
p263
I1143
sS'AVLTSMLTDPSHITAETAKRRLA'
p264
I613
sS'PEPDVVVVTSMLTDPSHITAETARRRLARGS'
p265
I1610
sS'DVAVLTSMLTDPSHITAET'
p266
I533
sS'PEPDVTV'
p267
I774
sS'SQLPCEPEPDVAVLTSMLTD'
p268
I545
sS'VGSQLPCEPEPDVTV'
p269
I857
sS'VTVLTSMLTDPSHITAETAKRRLAR'
p270
I1009
sS'QLPCEPEPDVAVLTSMLTDPSHITAETAKRRLARG'
p271
I741
sS'TDP'
p272
I70
sS'LTDPSHITAETAKR'
p273
I421
sS'VGSQLPCEPEPDVTVLTSMLTDPSHIT'
p274
I1025
sS'PDVAVLTSMLTDPSHITAETAKRRL'
p275
I643
sS'VGSQLPCEPEPDVAVLTS'
p276
I500
sS'QLPCEPEPDV'
p277
I291
sS'LPCEPEPDVVVVTSMLTDP'
p278
I1420
sS'VVTSMLTDPSHITAETARRRLARGS'
p279
I1541
sS'GSQLPCEPEPDVTVLTSML'
p280
I914
sS'VGSQLPCEPEPDVVV'
p281
I1323
sS'VTVLTSMLTDPS'
p282
I828
sS'PEPDVVVV'
p283
I1178
sS'SQLPCEPEPDVTVLTSMLTDPSHITA'
p284
I1013
sS'EPEPDVVVVTSMLTDPSHIT'
p285
I1444
sS'VA'
p286
I27
sS'MLTDPSHITAET'
p287
I365
sS'LPCEPEPDVAVLTSML'
p288
I457
sS'CEPEPDVTVLTSMLTD'
p289
I877
sS'VG'
p290
I16
sS'EPEPDVTVLTSMLTDPSHITAETAKRRLA'
p291
I1057
sS'VL'
p292
I29
sS'PEPDVTVLTSMLTDPSHITAETAKRRLA'
p293
I1046
sS'EPDVVVVTSMLTDPSHITAETARRRLARG'
p294
I1590
sS'VV'
p295
I1116
sS'VVVTSMLTDPSH'
p296
I1265
sS'QLPCEPEPDVAVLT'
p297
I405
sS'DVAVLTSMLTDPSHITAETAKRRLAR'
p298
I659
sS'EPEPDVVVVTSMLT'
p299
I1306
sS'LTDPSHITAET'
p300
I337
sS'VTVLTSMLTDPSHITAETAK'
p301
I939
sS'SQLPCEPEPDVAVLTSMLTDPSHI'
p302
I619
sS'SQLPCEPEPDVTVLTSMLTDPSHIT'
p303
I999
sS'CEPEPDVTVLTSMLTDPSHITA'
p304
I961
sS'SQLPCEPEPDVTVLTSMLTDPSHITAETA'
p305
I1052
sS'PCEPEPDVVVVTSMLTDPSH'
p306
I1442
sS'LPCEPEPDVTVLTSMLTDPS'
p307
I931
sS'DPSHITAE'
p308
I246
sS'PEPDVAVLTSMLTDPSHITAETAKRRLARGS'
p309
I716
sS'GSQLPCEPEPDVVVVTSM'
p310
I1395
sS'DPSHITAETAKR'
p311
I368
sS'TVLTSMLTDPSHITAETAKRRLARG'
p312
I1010
sS'VVVVTSMLT'
p313
I1201
sS'LPCEPEPDVTVLTSMLTDPSHITAETAKRRLARG'
p314
I1099
sS'VAVLTSMLTDPSHITAETAKRRLARGS'
p315
I674
sS'ITAETAKRRLARGS'
p316
I427
sS'TDPSHITAETA'
p317
I338
sS'EPEPDVAVLTSMLTDPSHITAETAKRRL'
p318
I682
sS'LPCEPEPDVAVLTSMLTDPSHI'
p319
I586
sS'D'
p320
I8
sS'HITAETARRRLARGS'
p321
I1346
sS'SMLTDPSHI'
p322
I274
sS'QLPCEPEPDVVVVTSMLTDPSHITAETA'
p323
I1572
sS'VAVLTSMLTDPSHITAETAKRR'
p324
I594
sS'TDPSHITAETARR'
p325
I1292
sS'EPDVVVVTSMLTDPSHITAETARRR'
p326
I1536
sS'EPEPDVVVVTSMLTDPSH'
p327
I1401
sS'TVLTSMLTDPSHITAETA'
p328
I912
sS'TAETAKRRLARGS'
p329
I401
sS'GSQLPCEPEPDVAVLTSMLTDPSHITAETAKRRL'
p330
I733
sS'QLPCEPEPDVVVVTSMLTDPSHITAETARR'
p331
I1595
sS'GSQLPCEPEPDVAVLTSML'
p332
I523
sS'PDVVVVTSMLTDPSHITAETARRRLA'
p333
I1552
sS'SMLTDPSHITAETAKR'
p334
I470
sS'LPCEPEPDVAVLTSM'
p335
I432
sS'LTSMLTDPSHITAETAKRRLA'
p336
I578
sS'HI'
p337
I38
sS'CEPEPDVVVVTSMLTDP'
p338
I1377
sS'EPEPDVAVLTSM'
p339
I354
sS'PDVVVVTSMLTDPSHITAETARRRL'
p340
I1537
sS'QLPCEPEPDVTVLTSMLTDPSHITAETAKRRLARGS'
p341
I1109
sS'EPEPDVVVVTSMLTDPSHITAETA'
p342
I1518
sS'PEPDVVVVTSMLTDPSHIT'
p343
I1424
sS'CEPEPDVTVLTSMLTDPSHITAETAKRRLAR'
p344
I1077
sS'PCEPEPDVVVVTSMLTDPSHITAETA'
p345
I1547
sS'PCEPEPDVVVVTSMLTDPSHITA'
p346
I1499
sS'AVLTSMLTDPS'
p347
I331
sS'DVVVVTSMLTDPSHI'
p348
I1334
sS'AVL'
p349
I63
sS'VVVVTSMLTDPSHITAETAR'
p350
I1449
sS'CEPEPDVVVVTSMLTDPSHITA'
p351
I1482
sS'OP'
p352
I1659
sS'QLPCEPEPDVVVVTSMLTDPSHITAETARRRLA'
p353
I1622
sS'PCEPEPDVVVV'
p354
I1235
sS'AETAKR'
p355
I185
sS'VVTSMLTD'
p356
I1184
sS'VGSQLPCEPEPDVAVLTSMLTDPSHITAETAKRRLA'
p357
I743
sS'TAKRRLAR'
p358
I254
sS'PCEPEPDVTVLTSMLTDPSHITAETAKRRLARGS'
p359
I1100
sS'CEPEPDVTVLTSMLTDPSHI'
p360
I933
sS'EPDVVVVTSMLTDPSH'
p361
I1356
sS'VTSMLTDPSHITAET'
p362
I1338
sS'SQLPCEPEPDVAVLTSM'
p363
I479
sS'ITAETA'
p364
I183
sS'LPCEPEPDVAV'
p365
I322
sS'TSMLTDPSHITAETAKR'
p366
I493
sS'MLTDPSHIT'
p367
I275
sS'MLTDPSH'
p368
I210
sS'PEPDVTVLTSMLTDP'
p369
I865
sS'SMLTDPSHITAETARRRLARGS'
p370
I1493
sS'DVVVVTSMLTDPSH'
p371
I1310
sS'PEPDVTVLTSMLT'
p372
I837
sS'PEPDVAV'
p373
I200
sS'DVAVLTSMLTDPSHITAETAKRRL'
p374
I628
sS'VGSQLPCEPEPDVAVLTSML'
p375
I543
sS'CEPEPDVVVVTSMLTDPSHITAE'
p376
I1500
sS'MLTDPSHITAETARRRLARGS'
p377
I1475
sS'AETAKRRLARGS'
p378
I374
sS'PCEPEPDVVVVTSMLTDPSHITAETARRRL'
p379
I1597
sS'TSMLTDPSHITAETAKRRLARG'
p380
I598
sS'VTSMLTDPSHITAETARRRLAR'
p381
I1491
sS'LTDPSHI'
p382
I211
sS'PEPDVAVLTSMLTDPSHITAETAKR'
p383
I641
sS'SHITAETARRRLARG'
p384
I1345
sS'VGSQLPCEPEPDVAVLTSMLTDPSHITAETAKRR'
p385
I732
sS'GSQLPCEPEPDVTVLTSMLTDPSHITAETAKR'
p386
I1081
sS'TSMLTDPSHITAETARRRLA'
p387
I1453
sS'CEPEPDVVVVTSML'
p388
I1305
sS'E'
p389
I7
sS'CEPEPDVAVLTSMLTDPSHITAETAKRRLARG'
p390
I723
sS'PEPDVTVLTSMLTDPSHITAE'
p391
I949
sS'GSQLPCEPEPDVAVLTSMLTDPS'
p392
I601
sS'SQLPCEPEPDVTVLTSMLTDPSHITAETAKRR'
p393
I1082
sS'QLPCEPEPDVAVLTSMLTDPSHITAETAKRR'
p394
I711
sS'PEPDVAVLTSMLTDPSHITAETAKRR'
p395
I656
sS'GSQLPCEPEPDVAVLTSMLTDPSHITAETAKRRLAR'
p396
I744
sS'DVAVLTSML'
p397
I268
sS'SQLPCEPEPDVAVLTSMLTDPSHITAETAKRRLA'
p398
I734
sS'SQLPCEPEPDVVVVTSMLTDPSHITAETARRRLA'
p399
I1628
sS'VGSQLPCEPEPDVAVLTSMLTDPSHITAETAKRRLARGS'
p400
I752
sS'PDVV'
p401
I1124
sS'PDVT'
p402
I758
sS'LPCEPEPDVVVVTSMLTDPSHITAETA'
p403
I1560
sS'CEPEPDVAVLTSMLTDPSHITAETAKRR'
p404
I681
sS'PDVAVLTSMLTDPSHITAETAKRRLARG'
p405
I685
sS'VLTSMLT'
p406
I206
sS'PDVA'
p407
I97
sS'EPDVTVLTSMLTDPSHITAETAKRRLARG'
p408
I1059
sS'VAVLTSMLTDPSHITA'
p409
I465
sS'VVVVTSMLTDPSHITA'
p410
I1359
sS'PSHITA'
p411
I180
sS'VAVLTSMLTDPSHITAETAKR'
p412
I575
sS'VGSQLPCEPEPDVTVLTSMLTDPSHITAETA'
p413
I1071
sS'VAV'
p414
I62
sS'ETAKRRLARGS'
p415
I346
sS'EPEPDVTVLTSMLTDPSHITAETAKRRLARG'
p416
I1078
sS'GSQLPCEPEPDVVVVTSMLTDPSHITAETARRR'
p417
I1620
sS'TVLTSMLTDPSHITAETAKRRL'
p418
I968
sS'TARRRLA'
p419
I1173
sS'DVAVLTSMLTDPSHITAETAKR'
p420
I593
sS'PCEPEPDVTVLTS'
p421
I834
sS'QLPCEPEPDVVVVTSMLTDPSHITAETARRRLARGS'
p422
I1640
sS'PSHITAETARRRLARGS'
p423
I1393
sS'VVTSMLTDPSHITAETARRR'
p424
I1451
sS'PDVAVLTSMLTDPSHITAETAKRR'
p425
I627
sS'PCE'
p426
I55
sS'QLPCEPEPDVTVLTSMLTDPSHITAETAKRRL'
p427
I1083
sS'SQLPCEPEPDVVVVTSMLTDPSHITAETARRRLAR'
p428
I1634
sS'VVVV'
p429
I1126
sS'PEPD'
p430
I95
sS'PSHI'
p431
I109
sS'EPEPDVTVLTSMLTDPSHITAETAKRRLARGS'
p432
I1087
sS'QLPCEPEPDVVVVTSMLTDPSHITAETARRRLARG'
p433
I1635
sS'VGSQLPCEPEPDVVVVTSMLTDPSHI'
p434
I1542
sS'VGSQLPCEPEPDVAVLTSMLTDPS'
p435
I617
sS'VTSMLTDPSHI'
p436
I1245
sS'VAVLTSMLT'
p437
I269
sS'SQLPCEPEPDVTVLTSMLTDPSHITAETAKR'
p438
I1073
sS'O'
p439
I1657
sS'AVLTSMLTDPSHI'
p440
I388
sS'LPCEPEPDVTVLTSML'
p441
I875
sS'LPCEPEPDVAVLTSMLTDPSHITAETAKRRLARG'
p442
I736
sS'DVTVLTSMLTDPSHITAETAKRRLAR'
p443
I1022
sS'ML'
p444
I33
sS'AETARRRLAR'
p445
I1230
sS'SHITAETAKRRLAR'
p446
I425
sS'PCEPEPDVAVLTSMLTDPSHITAETAK'
p447
I667
sS'VTVLTSMLTDPSH'
p448
I841
sS'EPDVTVLTSMLTDPSHITAETA'
p449
I964
sS'AKR'
p450
I80
sS'VGSQLPCEPEPDVAVLTSMLTDPSHITAET'
p451
I698
sS'GSQLPCEPEPDVAVLTSMLTDPSHI'
p452
I634
sS'SQLPCEPEPDVAVLTSMLTDPSHITAETAKRRL'
p453
I727
sS'CEPEPDVTVLTSMLTDPSHITAETAKRRLARG'
p454
I1086
sS'ARRRL'
p455
I1144
sS'VTSMLTD'
p456
I1168
sS'PCEPEPDVAV'
p457
I293
sS'SHITAETARRRLAR'
p458
I1320
sS'TAETARRRLARGS'
p459
I1298
sS'PCEPEPDVAVLTSMLTDPSHITAETAKRRL'
p460
I703
sS'GSQLPCEPEPDVVVVTSMLTD'
p461
I1458
sS'ETAKRRLA'
p462
I253
sS'PSHITAETAKRRLA'
p463
I424
sS'DPSHITAETARRR'
p464
I1293
sS'F'
p465
I1647
sS'PEPDVAVLTSM'
p466
I326
sS'CEPEPDVAVLTSMLTDPSHIT'
p467
I569
sS'DVTVLTSMLTDPSHITAETA'
p468
I938
sS'SQLPCEPEPDVAVL'
p469
I404
sS'VAVLTSMLTDPSHITAETA'
p470
I534
sS'PSHITAETAKRRLAR'
p471
I450
sS'ITAETAKRRLAR'
p472
I372
sS'PDVVVVTSMLTDPSHITAETARRRLAR'
p473
I1566
sS'ETARRR'
p474
I1156
sS'SHITAETARRRL'
p475
I1271
sS'CEPEPDVTVLTS'
p476
I822
sS'VTVLTS'
p477
I771
sS'PCEPEPDVTVLTSMLTDPSHI'
p478
I946
sS'PCEPEPDVAVLTSMLT'
p479
I458
sS'VVTSMLTDPSHITAETARRRLAR'
p480
I1508
sS'EPEPDVVVVTS'
p481
I1237
sS'LPCEPEPDVVVVTSMLTDPSHITAETARRRLARGS'
p482
I1636
sS'PCEPEPDVVVVTSMLTDPSHITAETARRRLAR'
p483
I1616
sS'EPEPDVAVLTSMLTDPSHITA'
p484
I570
sS'TDPSHITAETARRRL'
p485
I1342
sS'PEPDVTVLTSML'
p486
I824
sS'SQLPCEPEPDVAVLTSML'
p487
I502
sS'DVVVVTSMLTDP'
p488
I1263
sS'PCEPEPDVAVLTSMLTDPSHITAETAKRRLAR'
p489
I722
sS'PDVTVLTSML'
p490
I803
sS'VVVTSMLTDP'
p491
I1222
sS'PDVVVVTSMLTDPSHITA'
p492
I1404
sS'CEPEPDVTVLTSMLTDPSHITAETAKR'
p493
I1031
sS'PEPDVAVLTSMLTDPSH'
p494
I485
sS'EPEPDVVV'
p495
I1177
sS'VGSQLPCEPEPDVVVVTSMLTDPSHITAETARRRL'
p496
I1632
sS'EPEPDVAVLTSMLTDPSHI'
p497
I529
sS'EPEPDVAVLTSMLTDPSHIT'
p498
I550
sS'VVTSMLTDPSH'
p499
I1244
sS'QLPCEPEPDVAVLTSMLTDP'
p500
I546
sS'QLP'
p501
I53
sS'RRLAR'
p502
I155
sS'QLK'
p503
I1652
sS'VTSMLTDPSHITAE'
p504
I1314
sS'PDVTVLTSMLTDPSHI'
p505
I881
sS'PDVAVLTSMLTDPSHI'
p506
I463
sS'TVLTSMLTDP'
p507
I806
sS'TAETAKR'
p508
I218
sS'DVAVLTSMLTDPSHI'
p509
I439
sS'EPDVTVLTSMLTD'
p510
I838
sS'VGSQLPCEPEPDVAVLTSMLTDPSHITAETA'
p511
I708
sS'RR'
p512
I45
sS'VGSQLPCEPEPDVTVLTSMLTDPSHITAET'
p513
I1061
sS'RG'
p514
I49
sS'RL'
p515
I46
sS'LTSMLTDPSHIT'
p516
I362
sS'LPCEPEPDVVVVTSMLTDPSHITAETARRRLARG'
p517
I1630
sS'KRRLARG'
p518
I223
sS'AVLTSMLTDPSHITAETA'
p519
I513
sS'CEPEPDVAVLTSMLTDPSHITAETAKRRL'
p520
I693
sS'PDVVV'
p521
I1135
sS'VGSQLPCEPEPDVAVLTSMLTDPSHITAETAK'
p522
I717
sS'LPCEPEPDVVVVTSMLTDPS'
p523
I1441
sS'EPEPDVTVLTSM'
p524
I823
sS'PEPDVTVLTSMLTDPSHITAETAKRR'
p525
I1019
sS'PEPDVVVVTSMLTDPSHITAETARRR'
p526
I1550
sS'EPEPDVAVLTSMLTDPSHITAETAKRRLA'
p527
I694
sS'TVLTSMLTDPSH'
p528
I829
sS'LTDPSHITAETARRR'
p529
I1341
sS'DVTVL'
p530
I764
sS'PCEPEPDVTVL'
p531
I809
sS'DVVVV'
p532
I1136
sS'SMLTDPSHITAETAKRRLAR'
p533
I560
sS'LPCEPEPDVAVLTSMLTDPSHITAETAKR'
p534
I691
sS'TSML'
p535
I103
sS'PEPDVAVLTSMLTDPSHITAETAK'
p536
I625
sS'ETAKRRL'
p537
I220
sS'VVVTSMLTDPSHITAETARRRLAR'
p538
I1524
sS'LTSM'
p539
I102
sS'G'
p540
I1
sS'QLPCEPEPDVAVLTSMLTDPSHITA'
p541
I636
sS'SHITAETARRR'
p542
I1248
sS'HITAETAKRRLA'
p543
I371
sS'VVVVTSMLTDPSHITAETARRRLARG'
p544
I1554
sS'VAVLTSMLTDPSHITAETAK'
p545
I555
sS'SMLTDPSHITAETARRRLARG'
p546
I1474
sS'VGSQLPCEPEP'
p547
I318
sS'GSQLPCEPEPDVVVVTSMLTDPSHITAETARRRLA'
p548
I1633
sS'PCEPEPDVTVLTSMLTD'
p549
I890
sS'ITAETARRRLAR'
p550
I1273
sS'PEPDVAVLTSMLTDPSHI'
p551
I508
sS'CEPEPDVVVVTSMLTDPSHITAETARRRLARGS'
p552
I1625
sS'QLPCEPEPDVTVLTSMLTD'
p553
I916
sS'SQLPCEPEPDVAVLTS'
p554
I455
sS'VGSQLPCEPEPDVAVLTSM'
p555
I522
sS'VGSQLPCEPEPDVTVLTSMLTDPSHITA'
p556
I1038
sS'EPEPDVVVVTSMLTDPSHITAETAR'
p557
I1534
sS'PDVVVVTSMLTDPSHITAETARRR'
p558
I1521
sS'GSQLPCEPEPDVVVVTSMLTDPSHITA'
p559
I1557
sS'GSQLPCEPEPDVTVLT'
p560
I872
sS'GSQLPCEPEPDVTVLTSMLTDPSHITAETAKRRLARGS'
p561
I1114
sS'SMLTDPSHIT'
p562
I305
sS'VGSQLPCEPEPDVTVLT'
p563
I885
sS'SHITAETARRRLA'
p564
I1295
sS'SQLPCEPEPDVAVLTSMLTDPS'
p565
I584
sS'EPEPDVAVLTSMLTDPSHITAETA'
p566
I624
sS'PDVTVLTSMLTDPSHITAETAKRR'
p567
I993
sS'SMLTDPSH'
p568
I242
sS'PDV'
p569
I60
sS'PEPDVVVVTSM'
p570
I1238
sS'LTSMLT'
p571
I173
sS'PCEPEPDVTVLTSMLT'
p572
I876
sS'VAVLTSMLTDPSHITAETAKRRLA'
p573
I629
sS'DVTVLTSMLTDP'
p574
I827
sS'GSQLPCEPEPD'
p575
I319
sS'CEPEPDVAVLTSMLT'
p576
I434
sS'PDVAVLTSM'
p577
I267
sS'PEPDVAVLTSML'
p578
I355
sS'QLPCEPEPDVAVLTSMLTDPSHITAETA'
p579
I678
sS'CEPEPDVTVLTSML'
p580
I849
sS'QLPCEP'
p581
I161
sS'PEPDVAVLTSMLTDPSHITA'
p582
I551
sS'DV'
p583
I26
sS'PCEPEPDVAVLTSMLTDPSHITAETAKRRLARG'
p584
I730
sS'PEPDVTVLTSMLTDPSHITAETAK'
p585
I991
sS'DP'
p586
I35
sS'VGSQLPCEPEPDVVVVTSMLTDPSHITA'
p587
I1569
sS'PDVVVVTSMLTDPSHITAET'
p588
I1447
sS'LTSMLTDPSHITAETAKRRLARGS'
p589
I632
sS'ITAETAKRRLA'
p590
I343
sS'LPCEPEPDVVVVTSMLT'
p591
I1375
sS'MLT'
p592
I68
sS'VGSQLPCEPEPDVTVLTSMLTDP'
p593
I969
sS'GSQLPC'
p594
I159
sS'SQLPCEPEPDVVVVTSMLT'
p595
I1418
sS'TSMLTDPSHITAETAR'
p596
I1363
sS'VTVLTSMLTD'
p597
I805
sS'VVVVTSMLTDP'
p598
I1242
sS'TSMLTDPSHITAETAK'
p599
I469
sS'EPEPDVAVLTSMLTDPSHITAETAKRRLARG'
p600
I715
sS'LTSMLTDPSHITAETAKRR'
p601
I537
sS'VGSQLPCEPEPDV'
p602
I375
sS'TDPSHITAETARRRLA'
p603
I1367
sS'PCEPEPDVTVLTSML'
p604
I862
sS'PDVTVLTSMLTDPSHITAETAKRRLARG'
p605
I1048
sS'DVVVVTSM'
p606
I1181
sS'DVTVLTSML'
p607
I794
sS'QLPCEPEPDVAVLTSMLTDPSHITAETAKR'
p608
I701
sS'VGSQLPCEPEPDVAV'
p609
I428
sS'AVLTSMLTDPSHITAE'
p610
I466
sS'TSMLTDPSHITAE'
p611
I391
sS'RLARGS'
p612
I191
sS'AKRRLARG'
p613
I255
sS'LPCEPEPDVTVLTSMLTDPSHI'
p614
I959
sS'LTDPSHITAETAKRRLARG'
p615
I541
sS'PCEPEPDVAVLTSMLTDPSHITAETAKRRLA'
p616
I713
sS'VVVVTSMLTD'
p617
I1221
sS'EPDVVVVTSMLTDPSHIT'
p618
I1403
sS'VVVTSMLTDPSHITAETA'
p619
I1407
sS'EPDVAVLTSMLTDPSHITAETAKRRLAR'
p620
I684
sS'DPSHITAETAKRRLA'
p621
I449
sS'DPSHITAETARR'
p622
I1269
sS'H'
p623
I12
sS'CEPEPDVVVVTSMLTDPSHITAETAR'
p624
I1548
sS'PE'
p625
I24
sS'LPCEPEPDVVVVTSMLTDPSHI'
p626
I1480
sS'QLPCEPEPDVTVLTSMLTDPSHITAE'
p627
I1014
sS'TSMLTDPSHITAETAKRRLARGS'
p628
I616
sS'PEPDVTVLTSMLTDPSHI'
p629
I907
sS'GSQLPCEPEPDVTVLTSMLTDPSHITAETA'
p630
I1062
sS'VLTSMLTDPSHITAETAKRR'
p631
I557
sS'EPDVVVVT'
p632
I1179
sS'VAVLTSMLTDPSHIT'
p633
I440
sS'SMLTDPSHITAETARRRLA'
p634
I1433
sS'PO'
p635
I1658
sS'VAVLTSM'
p636
I204
sS'PDVTVLTSMLTDPSHIT'
p637
I895
sS'RGS'
p638
I86
sS'DVVVVTS'
p639
I1164
sS'GSQLP'
p640
I124
sS'QLPCEPEPDVAVLTSMLTDPSHI'
p641
I603
sS'EPEPDVAVLTSMLTDPSHITAETAKRR'
p642
I669
sS'VTSMLTDPSHITAETAR'
p643
I1386
sS'PCEPEPDVVVVTSMLTDPSHITAE'
p644
I1516
sS'VTSML'
p645
I1140
sS'ETAKRR'
p646
I186
sS'PSHITAETARR'
p647
I1247
sS'GSQLPCEPEPDVVVVTSMLTDPSHITAET'
p648
I1582
sS'EPDVAVL'
p649
I201
sS'CEPEPDVTVLTSMLTDPS'
p650
I905
sS'SQLPCEPEPDVTVLTSMLTDPSHITAETAKRRLARG'
p651
I1108
sS'TSMLTD'
p652
I174
sS'VVVVTSMLTDPSHIT'
p653
I1335
sS'PDVVVVTSM'
p654
I1199
sS'VGS'
p655
I50
sS'VAVLTS'
p656
I170
sS'GSQLPCEPEPDVAVLTSMLTDPSHITAETAKRR'
p657
I726
sS'TDPSHITAETARRR'
p658
I1317
sS'EPEPDVTVLTSMLTDPSHITAETAKR'
p659
I1018
sS'S'
p660
I2
sS'AETAR'
p661
I1141
sS'ITAETARRRLARG'
p662
I1297
sS'PCEPEPDVTVLTSMLTDPSHITAETAKRRL'
p663
I1066
sS'AETAK'
p664
I150
sS'VVVVTSMLTDPSH'
p665
I1287
sS'DVTVLTSMLTDPSHITAETAKRRLA'
p666
I1008
sS'VVTSM'
p667
I1139
sS'PEP'
p668
I58
sS'CEPEPDVTVLTSMLTDPSHITAET'
p669
I989
sS'PCEPEPDVTVLTSMLTDPSHITAETAKRRLAR'
p670
I1085
sS'DVVV'
p671
I1125
sS'DVTVLTSMLTD'
p672
I815
sS'PCEPEPDVAVLTSMLTDPSHI'
p673
I568
sS'SQLPCEPEPDVVVVT'
p674
I1325
sS'EPEPDVAVLTSMLTDPSHITAE'
p675
I589
sS'QLPCEPEPDVVVVTSMLTDPSHITAETARRR'
p676
I1605
sS'VGSQLPCEPEPDVVVVTS'
p677
I1394
sS'LPCEPEPDVVVVTSMLTDPSHITAETARRRLA'
p678
I1615
sS'SQLPCEPEPDVAVLTSMLTDPSHIT'
p679
I635
sS'EPEPDVVVVTSMLTDPSHI'
p680
I1423
sS'TSMLTDPS'
p681
I241
sS'PEPDVVVVTSMLTDPSHITAETARRRL'
p682
I1564
sS'VTVLTSMLTDPSHITAETAKRR'
p683
I967
sS'PCEPEPDVAVLTSML'
p684
I433
sS'DPSHIT'
p685
I179
sS'DVVVVTSML'
p686
I1200
sS'GSQLPCEPEPDVVVVTSMLTDPSHITAETARRRLARG'
p687
I1642
sS'DPSHITAETAK'
p688
I339
sS'VGSQLP'
p689
I158
sS'TAKRR'
p690
I152
sS'PCEPEPDVVVVTSMLTDPSHIT'
p691
I1481
sS'DVTVLTSMLTDPSHITAETAKRRL'
p692
I994
sS'PEPDVVVVTSMLTDPSHI'
p693
I1402
sS'DVTVLTSMLTDPSHI'
p694
I868
sS'PEPDVTVLTSMLTDPSHITAETAKR'
p695
I1005
sS'PEPDVVVVTSMLTDPSHITAETARRRLAR'
p696
I1589
sS'VVVTSM'
p697
I1151
sS'HITAETAR'
p698
I1186
sS'PEPDVVVVTSMLT'
p699
I1283
sS'CEPEPDVTVLTSMLT'
p700
I863
sS'VTVLTSMLTDPSHITAETAKR'
p701
I953
sS'SQLPCEPEPDVVVVTSMLTDP'
p702
I1459
sS'SMLTDPSHITA'
p703
I335
sS'VVTSMLTDPSHITA'
p704
I1313
sS'EPEPDVVVVTSMLTDP'
p705
I1354
sS'SQLPCEPEPDVAVLTSMLTDPSHITAETAKRRLAR'
p706
I740
sS'I'
p707
I13
sS'IT'
p708
I39
sS'PCEPEPDVAVLTSMLTDPSHITAETA'
p709
I653
sS'CEPEPDVVVVTSMLTDPSHIT'
p710
I1463
sS'VVVVTSML'
p711
I1182
sS'TDPSHITAET'
p712
I308
sS'EPDVAVLTSMLTDPSHITAETAKRRLARGS'
p713
I707
sS'PEPDVAVLTSMLTDP'
p714
I436
sS'PEPDVVVVTSMLTDPSHITAETARRRLARG'
p715
I1600
sS'PEPDVTVLTSMLTDPSHIT'
p716
I921
sS'TSMLTDPSHITAETARRR'
p717
I1410
sS'VLTS'
p718
I101
sS'TAETAKRRLARG'
p719
I373
sS'TVLTSMLTDPSHITAET'
p720
I898
sS'QLPCEPEPD'
p721
I260
sS'PDVVVVTS'
p722
I1180
sS'DVAVLTSMLTDPSH'
p723
I413
sS'TAETAKRRLA'
p724
I314
sS'KRRLAR'
p725
I189
sS'PSHITAETARRR'
p726
I1270
sS'GSQLPCEPEPDVVVVTSML'
p727
I1417
sS'EPDVAVLTSMLTDPSHITAETAKRR'
p728
I642
sS'PDVTVL'
p729
I769
sS'PSHITAETAKRR'
p730
I369
sS'EPD'
p731
I59
sS'EPE'
p732
I57
sS'SQLPCEPEPDVAVLTSMLTDPSHITAETAKR'
p733
I710
sS'PCEPEPDVTVLTSMLTDPSHITAE'
p734
I988
sS'DVTVLTSMLTDPSHITAETAKR'
p735
I966
sS'VVV'
p736
I1118
sS'VVT'
p737
I1119
sS'PEPDVAVLTSMLTDPSHITAETA'
p738
I608
sS'TVLTSM'
p739
I772
sS'EPDVTVLTSMLTDPSHIT'
p740
I908
sS'LPCEPEPDVAVLTSMLT'
p741
I481
sS'PDVVVV'
p742
I1148
sS'AETAKRRLA'
p743
I284
sS'VGSQLPCEPEPDVAVLTSMLTDPSH'
p744
I633
sS'CEPEPDVAVLTSMLTDPSHI'
p745
I549
sS'VVVVTSMLTDPSHI'
p746
I1311
sS'QLPCEPEPDVTVLTSMLTDPSH'
p747
I958
sS'CEPEPDVTVLTSMLTDPSHITAETAK'
p748
I1017
sS'SQLPCEPEPDVTVLTS'
p749
I873
sS'QLPCEPEPDVTVLTSMLTDP'
p750
I930
sS'VLTSMLTDPSHITAETA'
p751
I491
sS'LPCEPEPDVTVLTSMLTD'
p752
I903
sS'DVAVLTS'
p753
I203
sS'ITAETAK'
p754
I217
sS'VVTSMLTDPSHITAET'
p755
I1361
sS'DVAVLTSMLTDPSHITAETAKRRLARG'
p756
I673
sS'MLTDPSHITAETAR'
p757
I1315
sS'EPDVVV'
p758
I1147
sS'VAVL'
p759
I99
sS'ITAETAR'
p760
I1169
sS'DVVVVTSMLTDPSHITAETARRRLARG'
p761
I1567
sS'VVVVTSMLTDPSHITAETARR'
p762
I1469
sS'PCEPEPDVVVVTSMLTDPS'
p763
I1421
sS'PDVTVLTSMLT'
p764
I814
sS'LPCEPEPDVTVLTSMLTDPSHITAET'
p765
I1015
sS'PDVAVLTSMLTDPSHIT'
p766
I487
sS'VAVLTSMLTDPS'
p767
I359
sS'GSQLPCEPEPDVAVLTSMLTDPSHITA'
p768
I663
sS'DVAVL'
p769
I134
sS'VLTSMLTDPSHITAETAKRRL'
p770
I577
sS'AK'
p771
I43
sS'AKRRLAR'
p772
I222
sS'CEPEPDVAVLTSMLTDPSHITAE'
p773
I606
sS'HITAETAKR'
p774
I281
sS'PDVTV'
p775
I763
sS'LPCEPEPDVVVVTSMLTDPSHITAETAR'
p776
I1573
sS'GSQLPCEPEPDVVVVTSMLTDPSHITAETARRRLARGS'
p777
I1645
sS'PEPDVVVVTSMLTD'
p778
I1307
sS'AETAKRRL'
p779
I252
sS'VTSMLTDPSHITAETARRR'
p780
I1431
sS'VAVLTSMLTDPSH'
p781
I387
sS'DVVVVTSMLTDPSHITAETAR'
p782
I1468
sS'SQLPCEPEPDVAVLTSMLTDPSHITAETAKRR'
p783
I719
sS'EPDVAVLTSMLTDPSHITAETAKRRLARG'
p784
I696
sS'LPCEPEPDVAVLTSMLTDPSHITAE'
p785
I637
sS'ITAETARR'
p786
I1187
sS'AVLTSMLTDPSHITAET'
p787
I490
sS'SQLPCEPEPDVVVVTSMLTDPSHITAETA'
p788
I1583
sS'DVTVLTSM'
p789
I785
sS'GSQLPCEPEPDVAVLTSMLTDPSHIT'
p790
I649
sS'SHITAETAKRRL'
p791
I370
sS'CEPEPDVAVLTSMLTDPSHITA'
p792
I588
sS'VVVTSMLTDPSHITA'
p793
I1336
sS'PEPDVAVLT'
p794
I265
sS'RRL'
p795
I82
sS'VTVLTSMLTDPSHITAETAKRRLARGS'
p796
I1037
sS'EPEPDVVVVTSMLTDPSHITA'
p797
I1464
sS'EPEPDVVVVTSMLTDPS'
p798
I1378
sS'EPDVVVVTSMLTDPSHITAETAR'
p799
I1503
sS'AKRRLARGS'
p800
I287
sS'PDVVVVTSMLTDPSHITAETARR'
p801
I1504
sS'PCEPEPDVTVLTSMLTDPSHITAET'
p802
I1002
sS'RRR'
p803
I1123
sS'PDVTVLTSMLTD'
p804
I826
sS'SQLPCEPEPDVV'
p805
I1254
sS'SQLPCEPEPDVT'
p806
I818
sS'SQLPCEPEPDVAVLTSMLTDPSHITA'
p807
I650
sS'CEPEPDVVVVTSMLTDPSHI'
p808
I1443
sS'LTSMLTDPSHITA'
p809
I390
sS'GSQLPCEPEPDVAVLTSMLTDPSHITAE'
p810
I676
sS'SMLT'
p811
I104
sS'GSQLPCEPEPDVTVLTSMLTDPSHITAETAKRRLARG'
p812
I1111
sS'ETAKR'
p813
I151
sS'QLPCEPEPDVAVLTSMLTDPSHITAETAKRRLA'
p814
I728
sS'SMLTD'
p815
I140
sS'CEPEPDV'
p816
I198
sS'GSQLPCEPEPDV'
p817
I348
sS'VTSMLTDPSHITAETA'
p818
I1362
sS'GSQLPCEPEPDVVVVTSMLTDPSH'
p819
I1512
sS'AVLTSMLTDPSHITAETAKRRLARGS'
p820
I661
sS'DPSHITAETAR'
p821
I1246
sS'LPCEPEPDVTVLTSMLTDPSHITAETAKRRLA'
p822
I1084
sS'PDVAVLTSMLTDPSHITA'
p823
I510
sS'HITAETA'
p824
I216
sS'GSQLPCEPEPDVVVVTSMLTDPSHITAETARRRLAR'
p825
I1638
sS'VLTSMLTDPSHITAET'
p826
I467
sS'CEPEPDVAVLTSMLTDPSH'
p827
I528
sS'QLPCEPEPDVAVLTSMLTDPSHITAETAKRRLAR'
p828
I735
sS'GSQLPCEPE'
p829
I258
sS'PEPDVTVLTSMLTDPSHITAETAKRRLARG'
p830
I1069
sS'CEPEPDVTVLTSMLTDPSHITAETAKRR'
p831
I1044
sS'SHITAETARR'
p832
I1226
sS'SQLPCEPEPDVAV'
p833
I377
sS'VVVVTSMLTDPSHITAE'
p834
I1383
sS'CEPEPDVTVLTSMLTDPSHITAETAKRRLA'
p835
I1067
sS'EPDVVVVTSMLTDPSHITAE'
p836
I1446
sS'GSQLPCEPEPDVVVVTSMLTDPSHITAETARRRL'
p837
I1627
sS'EPEPDVVVVTSMLTDPSHITAET'
p838
I1501
sS'LTDPSHITAETARRRL'
p839
I1366
sS'RRRLAR'
p840
I1159
sS'VGSQLPCEPEPDVTVLTSMLTDPSHITAETAKRRLAR'
p841
I1110
sS'VLTSMLTDPSHITA'
p842
I416
sS'PCEPEPDVTVLTSMLTDPSHITAETAKR'
p843
I1043
sS'VGSQLPC'
p844
I192
sS'VVVTSMLTDPSHIT'
p845
I1312
sS'VVVVTSMLTDPSHITAETARRRL'
p846
I1506
sS'PEPDVAVLTSMLTDPSHITAETAKRRL'
p847
I670
sS'LPCEPEPDVTVLT'
p848
I833
sS'VAVLTSMLTDPSHITAETAKRRLAR'
p849
I645
sS'TAR'
p850
I1121
sS'EPEPDVAVLTSMLTDP'
p851
I460
sS'EPEPDVTVLTSMLTDPSHITAETAKRR'
p852
I1032
sS'DVVVVTSMLTDPSHITAETARRRLAR'
p853
I1553
sS'TAE'
p854
I76
sS'TAK'
p855
I79
sS'VTVLT'
p856
I765
sS'TAETAKRR'
p857
I251
sS'KRRLA'
p858
I154
sS'VLTSMLTDPSHITAETAKRRLARG'
p859
I631
sS'LTDPSHITA'
p860
I276
sS'PCEPEPDVTVLTSM'
p861
I848
sS'PDVTVLTS'
p862
I784
sS'AVLTSMLTDP'
p863
I301
sS'SHITAE'
p864
I181
sS'VTSM'
p865
I1129
sS'TSM'
p866
I66
sS'LTDPSHITAETAKRR'
p867
I447
sS'MLTDPSHITAETAKRRL'
p868
I495
sS'EPEPDVTVLTSMLTDPSHITAETAK'
p869
I1004
sS'HITAETAKRRLARGS'
p870
I452
sS'RLARG'
p871
I156
sS'LTDP'
p872
I106
sS'VTSMLTDP'
p873
I1185
sS'VVVTSMLTDPSHITAETARRRLARG'
p874
I1540
sS'AVLTSML'
p875
I205
sS'PEPDVVVVTSMLTDPSHITAETA'
p876
I1502
sS'VVVTSMLTDPSHITAETARRRLA'
p877
I1507
sS'K'
p878
I14
sS'SQLPCEPEPDVAVLT'
p879
I430
sS'GSQLPCEPEPDVTVLTSM'
p880
I900
sS'EPEPDVAVLTSML'
p881
I382
sS'SQLPCEPEPDVTVLTSML'
p882
I901
sS'SQLPCEPEPDVTVLTSM'
p883
I887
sS'EPEPDVTVLTSMLTDPSHITAETAKRRLAR'
p884
I1068
sS'CEPEPDVTVLTSMLTDP'
p885
I891
sS'EPEPDVAVLTSMLTD'
p886
I435
sS'SQLPCEPEPDVVVVTS'
p887
I1349
sS'ITAET'
p888
I148
sS'ITAETAKRRL'
p889
I313
sS'SHI'
p890
I73
sS'EPDVTVLTSMLTDPSHITAE'
p891
I936
sS'EPDVTVLTSMLTDPSHITAETAKRRLA'
p892
I1034
sS'SMLTDPSHITAETAKRRLA'
p893
I539
sS'PEPDVVVVT'
p894
I1197
sS'AVLTSMLTDPSH'
p895
I360
sS'SQLPCEPEPDVVVVTSMLTDPSHITA'
p896
I1544
sS'LTS'
p897
I65
sS'PEPDVTVLTSMLTDPSHITA'
p898
I935
sS'DVAVLTSMLTDPSHITA'
p899
I488
sS'QLPCEPEPDVTVL'
p900
I832
sS'SQLPCEPEPDVTVLTSMLT'
p901
I915
sS'VTSMLTDPSHITAETARRRLARGS'
p902
I1526
sS'LTD'
p903
I69
sS'PEPDVTVLT'
p904
I791
sS'DVVVVTSMLTDPSHIT'
p905
I1358
sS'TSMLTDPSHITAET'
p906
I418
sS'EPDVAVLTSMLTDPS'
p907
I437
sS'SQLPCEPEPDVAVLTSMLTDP'
p908
I565
sS'SQ'
p909
I18
sS'VVTSMLT'
p910
I1167
sS'CEPEPDVAV'
p911
I263
sS'PEPDVVVVTSMLTDPSHITAE'
p912
I1465
sS'SH'
p913
I37
sS'SM'
p914
I32
sS'LPCEPEPDV'
p915
I261
sS'LPCEPEPDVAVLTSMLTDPSHITAETAKRRLARGS'
p916
I742
sS'HITAETAK'
p917
I249
sS'TDPSHITAETAKRRLAR'
p918
I497
sS'LTSMLTDPSHITAE'
p919
I417
sS'TAETARRR'
p920
I1188
sS'LPCEPEPDVVVVTSMLTDPSHIT'
p921
I1498
sS'EPEPDVVVVTSMLTDPSHITAETARRR'
p922
I1563
sS'PDVTVLTSMLTDPSHITAETAKRRLA'
p923
I1021
sS'LPCEPEPDVTVLTSM'
p924
I861
sS'DVTV'
p925
I759
sS'VTSMLTDPSH'
p926
I1224
sS'VVTSMLTDPSHITAETAR'
p927
I1408
sS'VAVLT'
p928
I135
sS'VVTSMLTDPSHITAETARR'
p929
I1430
sS'RRLARGS'
p930
I224
sS'PDVTVLTSMLTDPSHITAETAKRRLAR'
p931
I1035
sS'VVVVTSMLTDPSHITAETARRRLA'
p932
I1523
sS'EPEPDVVVVTSMLTDPSHITAETARRRL'
p933
I1576
sS'AKRR'
p934
I117
sS'PSHITAETAKRRLARGS'
p935
I499
sS'CEPEPDVVVVTSMLTD'
p936
I1353
sS'DVVVVTSMLTDPSHITAE'
p937
I1405
sS'PCEPEPDVTVLTSMLTDPSH'
p938
I932
sS'VTVLTSMLTDPSHITA'
p939
I883
sS'EPDVVVVTSM'
p940
I1218
sS'EPDVTVLTSMLTDPSHITAETAKRRLAR'
p941
I1047
sS'PDVVVVT'
p942
I1163
sS'MLTDPSHITAETARRRLA'
p943
I1412
sS'SQLPCEPEPDVTVLTSMLTDP'
p944
I943
sS'EPDVAVLT'
p945
I234
sS'AETAKRRLARG'
p946
I345
sS'VGSQLPCEPEPDVVVVTSMLTDPSHITAETAR'
p947
I1611
sS'SQLPCEPEPDVTVLT'
p948
I859
sS'LPCEPEPDVAVLTSMLTDPSHITAET'
p949
I652
sS'PDVTVLTSMLTDPSHITAETAKRRL'
p950
I1007
sS'DVVVVTSMLTDPSHITAETARRRLA'
p951
I1538
sS'EPDVVVVTSMLTDPSHITAETA'
p952
I1485
sS'GSQLPCEPEPDVTVLTSMLTDPSHITAE'
p953
I1039
sS'L'
p954
I4
sS'EPEPDVTVLTSMLTDPSHITA'
p955
I948
sS'DVTVLTSMLTDPSH'
p956
I854
sS'VAVLTSMLTDPSHI'
p957
I414
sS'VGSQLPCEPEPDVVVVTSMLTDPSHITAETARRRLARG'
p958
I1644
sS'VVVTSMLTDPSHITAETARRRLARGS'
p959
I1555
sS'GSQLPCEPEPDVTVLTSMLTDPSHIT'
p960
I1012
sS'QLPCE'
p961
I126
sS'SQLPCEPEPDVTVLTSMLTDPSHITAETAKRRLARGS'
p962
I1112
sS'DPSHITAETAKRRLAR'
p963
I474
sS'QLPCEPEPDVAVLTSMLTDPSHITAET'
p964
I665
sS'QLPCEPEPDVVVVTSML'
p965
I1374
sS'HITAETARRR'
p966
I1227
sS'AVLTSMLTDPSHITAETAK'
p967
I535
sS'CEPEPDVTVLTSMLTDPSHITAETAKRRLARGS'
p968
I1094
sS'SHITAETAKRRLARGS'
p969
I476
sS'EF'
p970
I1648
sS'PCEPE'
p971
I128
sS'ET'
p972
I42
sS'DVTVLTSMLTDPSHITAE'
p973
I910
sS'EP'
p974
I23
sS'DPSHITAETAKRRL'
p975
I423
sS'QLPCEPEPDVAVLTSMLTDPSHITAETAKRRL'
p976
I720
sS'ETARRRLARGS'
p977
I1253
sS'VAVLTSMLTDPSHITAET'
p978
I512
sS'AETARRRLARG'
p979
I1252
sS'DVTVLTSMLTDPSHITA'
p980
I896
sS'SQLPCEPEPDVVVVTSMLTDPSHI'
p981
I1513
sS'VGSQLPCEPEPDVTVLTSMLTDPS'
p982
I983
sS'SQLPCEPEPDVA'
p983
I349
sS'PCEPEPDVVVVTSMLT'
p984
I1352
sS'EPDVVVVTSMLTDPSHITAETARRRLARGS'
p985
I1601
sS'PEPDVTVLTSMLTDPSHITAETAKRRLAR'
p986
I1058
sS'EPDVTV'
p987
I768
sS'EPEPDVAV'
p988
I232
sS'TARRRL'
p989
I1157
sS'DVAVLTSMLTDPSHITAETAKRR'
p990
I611
sS'SMLTDPSHITAETARRRLAR'
p991
I1454
sS'QLPCEPEPDVAVLTSML'
p992
I480
sS'QLPC'
p993
I90
sS'ARRRLAR'
p994
I1174
sS'VTS'
p995
I1120
sS'VTV'
p996
I756
sS'HITAET'
p997
I182
sS'EPDVAVLTSMLTDPSHITAETAKR'
p998
I626
sS'PDVVVVTSML'
p999
I1219
sS'ETAR'
p1000
I1130
sS'SMLTDPS'
p1001
I209
sS'SMLTDPSHITAETAKRRL'
p1002
I517
sS'VAVLTSMLTDPSHITAETAKRRLARG'
p1003
I660
sS'ETAK'
p1004
I115
sS'EPDVTVLTSMLT'
p1005
I825
sS'VVVTSMLTDPSHITAETAR'
p1006
I1429
sS'MLTDPSHITAETAKRRLA'
p1007
I518
sS'QLPCEPEPDVVV'
p1008
I1255
sS'CEPEPDVVV'
p1009
I1195
sS'EPDVAVLTSM'
p1010
I297
sS'HITAE'
p1011
I147
sS'HITAETARRRLA'
p1012
I1272
sS'VVVVT'
p1013
I1137
sS'EPDVAVLTSMLT'
p1014
I356
sS'TVLTSMLTDPS'
p1015
I817
sS'ARRR'
p1016
I1132
sS'MLTDPS'
p1017
I176
sS'PDVVVVTSMLTDPSHITAETA'
p1018
I1467
sS'MLTDPSHITAETARR'
p1019
I1340
sS'LPCEPEPDVVVVTSML'
p1020
I1351
sS'ETARRRLAR'
p1021
I1210
sS'SQLPCEPEPDVTVLTSMLTD'
p1022
I929
sS'VTVLTSMLTDPSHIT'
p1023
I869
sS'GSQLPCEPEPDVVVVTSMLTDP'
p1024
I1477
sS'LTDPSHITAETARR'
p1025
I1316
sS'M'
p1026
I11
sS'EPDVTVLTSMLTDPSHITAETAK'
p1027
I978
sS'HITAETARRRLARG'
p1028
I1321
sS'VLTSMLTDPSHITAETAKRRLA'
p1029
I596
sS'TDPSHITAETARRRLAR'
p1030
I1391
sS'EPEPDVVVVTSML'
p1031
I1282
sS'PDVTVLTSMLTDPSHITA'
p1032
I909
sS'PEPDVAVLTSMLT'
p1033
I383
sS'DVVVVTSMLTD'
p1034
I1241
sS'LPCEPEPDVAVLTSMLTDP'
p1035
I526
sS'TVLTSMLTDPSHITAETAKRR'
p1036
I954
sS'MLTDPSHITAETARRRLAR'
p1037
I1434
sS'TAKRRLA'
p1038
I221
sS'SQLPCEPEPDVVVVTSMLTDPSHITAE'
p1039
I1558
sS'VVVT'
p1040
I1127
sS'TSMLTDPSHITAETAKRR'
p1041
I516
sS'DPSH'
p1042
I108
sS'GSQLPCEPEPDVVVVTSMLT'
p1043
I1438
sS'GSQLPCEPEPDVTV'
p1044
I844
sS'ARRRLARGS'
p1045
I1212
sS'PSHITAETARRRL'
p1046
I1294
sS'PCEPEPDVVV'
p1047
I1214
sS'SQLPCEPEPDVTVLTSMLTDPS'
p1048
I957
sS'LPCEPEPDVTVLTSMLTDPSHITAETAKRRLARGS'
p1049
I1105
sS'PDVAVLTSMLTDPSHITAETAKRRLA'
p1050
I658
sS'QLPCEPEPDVAVLTSMLTDPSHITAE'
p1051
I651
sS'CEPEPDVAVLTSMLTDPSHITAETA'
p1052
I639
sS'VGSQLPCEPEPDVTVLTSMLTDPSHITAETAK'
p1053
I1080
sS'TSMLTDPSHITAETARR'
p1054
I1387
sS'VVVTSMLTDPSHITAETARRR'
p1055
I1470
sS'VGSQLPCEPEPDVVVVTSMLTDPSHITAETARRRLA'
p1056
I1637
sS'EPDVTVLT'
p1057
I783
sS'VTVLTSMLTDPSHI'
p1058
I855
sS'EPEPDVAVL'
p1059
I264
sS'VVVTSMLTDPSHI'
p1060
I1288
sS'DVVVVTSMLTDPSHITA'
p1061
I1382
sS'TAETARRRLAR'
p1062
I1251
sS'PEPDVVVVTSMLTDP'
p1063
I1331
sS'LTSMLTDPSHI'
p1064
I333
sS'PEPDVTVLTSMLTDPSH'
p1065
I893
sS'EPDVTVLTSMLTDPSHITAET'
p1066
I950
sS'MLTDPSHITAETAKRRLARGS'
p1067
I581
sS'SQLPCEPEPDV'
p1068
I320
sS'LPCEPEPDVAVLTSMLTDPSHIT'
p1069
I604
sS'GSQLPCEPEPDVTVLTSMLT'
p1070
I928
sS'PCEPEPDVAVLT'
p1071
I352
sS'PCEPEPDVAVLTSMLTDPSHITAET'
p1072
I638
sS'SHITA'
p1073
I146
sS'GSQLPCEPEPDVVVVTSMLTDPSHI'
p1074
I1528
sS'LTSMLTDPSHITAET'
p1075
I443
sS'LPCEPEPDVAVLTSMLTDPSH'
p1076
I567
sS'EPDVVVVTSMLTDPSHITAETARR'
p1077
I1520
sS'PEPDVVVVTSMLTDPSHITAETAR'
p1078
I1519
sS'TDPSHITAETAKRR'
p1079
I422
sS'VGSQLPCEPEPDVTVLTSM'
p1080
I913
sS'AVLTS'
p1081
I136
sS'EPDVTVLTSMLTDPSHITAETAKRRLARGS'
p1082
I1070
sS'ITAETARRRLA'
p1083
I1250
sS'LPCEPEPDVVVV'
p1084
I1256
sS'DVAVLTSMLTDP'
p1085
I358
sS'VGSQLPCEPEPDVVVVTSMLTD'
p1086
I1476
sS'VGSQLPCEPEPDVVVVTSMLTDP'
p1087
I1494
sS'TVLTS'
p1088
I766
sS'VGSQLPCEPEPDVAVLT'
p1089
I477
sS'QLPCEPEPDVVVV'
p1090
I1278
sS'QLPCEPEPDVAVLTS'
p1091
I431
sS'EPEPDVVVVTSMLTDPSHITAETARR'
p1092
I1549
sS'QLPCEPEPDVTVLTSML'
p1093
I888
sS'RRLA'
p1094
I119
sS'VGSQLPCEPEPDVTVLTSMLTD'
p1095
I955
sS'PDVTVLTSMLTDPSH'
p1096
I867
sS'DVTVLT'
p1097
I770
sS'QLPCEPEPDVVVVTSMLTD'
p1098
I1419
sS'PCEPEPDVAVL'
p1099
I323
sS'LPCEPEPDVVVVTSMLTDPSHITAET'
p1100
I1546
sS'KRR'
p1101
I81
sS'LTDPS'
p1102
I142
sS'VVTSMLTDP'
p1103
I1203
sS'GSQLPCEPEPDVAVLTSMLTDPSHITAETAKRRLARGS'
p1104
I751
sS'VTSMLTDPS'
p1105
I1204
sS'CEPEPDVVVVTS'
p1106
I1258
sS'CEPEPDVVVVT'
p1107
I1236
sS'KRRL'
p1108
I118
sS'ETAKRRLAR'
p1109
I285
sS'SQLPCEPEPDVVVVTSMLTD'
p1110
I1439
sS'PEPDVVVVTSMLTDPSHITAETARR'
p1111
I1535
sS'PEPDVAVLTSMLTD'
p1112
I410
sS'EPEPDVVVVTSMLTDPSHITAETARRRLA'
p1113
I1588
sS'RRRLA'
p1114
I1145
sS'VGSQLPCEPEPDVTVLTSML'
p1115
I927
sS'SQLPCEPEPDVVVVTSMLTDPSHITAET'
p1116
I1571
sS'VLTSM'
p1117
I137
sS'VGSQLPCEPEPDVTVLTSMLTDPSHITAETAKR'
p1118
I1088
sS'VGSQ'
p1119
I87
sS'MLTDPSHITAE'
p1120
I336
sS'VGSQLPCEPEPDVTVLTSMLTDPSHITAETAKRRLARGS'
p1121
I1115
sS'DPSHITAETAKRRLARGS'
p1122
I521
sS'PDVVVVTSMLT'
p1123
I1240
sS'DVTVLTSMLTDPSHITAETAKRRLARG'
p1124
I1036
sS'QLPCEPEPDVTVLTSMLTDPSHITAETAKRRLARG'
p1125
I1104
sS'EPEPDVTVLTSMLTDP'
p1126
I878
sS'MLTDPSHITAETARRRLARG'
p1127
I1455
sS'QLPCEPEPDVAV'
p1128
I350
sS'GSQLPCEPEPDVVVV'
p1129
I1324
sS'VVTSMLTDPS'
p1130
I1223
sS'GSQLPCEPEPDVTVL'
p1131
I858
sS'SQLPCEPEPDVVVVTSMLTDPSHITAETAR'
p1132
I1594
sS'TAETAKRRLAR'
p1133
I344
sS'TAETARR'
p1134
I1170
sS'VLTSMLTDP'
p1135
I271
sS'EPEPD'
p1136
I130
sS'LPCEPEPDVVVVTSMLTDPSHITAETARRRLAR'
p1137
I1623
sS'EPEPDVTV'
p1138
I781
sS'PEPDVTVLTSMLTDPS'
p1139
I879
sS'VGSQLPCEPEPDVA'
p1140
I402
sS'CEPEPDVTVLTSMLTDPSHITAETA'
p1141
I1003
sS'CEPEPDVVVVTSMLTDPSHITAETARRR'
p1142
I1575
sS'VVVTSMLT'
p1143
I1183
sS'VGSQLPCEPEPDVT'
p1144
I843
sS'VGSQLPCEPEPDVV'
p1145
I1299
sS'PCEPEPDVTVLTSMLTDPSHITAETAKRR'
p1146
I1055
sS'TDPSHITAETAKRRLARG'
p1147
I520
sS'PDVVVVTSMLTDPSHITAETARRRLARGS'
p1148
I1591
sS'HITAETARR'
p1149
I1206
sS'LPCEPEPDVAVLTS'
p1150
I406
sS'PEPDV'
p1151
I131
sS'QLPCEPEPDVAVLTSMLTDPSHIT'
p1152
I620
sS'AETARRRLA'
p1153
I1209
sS'VGSQLPCEPEPDVVVVTSM'
p1154
I1416
sS'MLTDPSHITAETARRRL'
p1155
I1389
sS'DVTVLTSMLTDPSHITAETAKRR'
p1156
I980
sS'TSMLTDPSHITAETARRRLARGS'
p1157
I1510
sS'SQLPCEPEPDVVVVTSM'
p1158
I1373
sS'EPEPDVTVLTSMLTD'
p1159
I864
sS'EPEPDVAVLTSMLTDPSHITAETAK'
p1160
I640
sS'TDPSHITAETAKRRLARGS'
p1161
I542
sS'VTVL'
p1162
I760
sS'VVTSMLTDPSHITAE'
p1163
I1337
sS'HITAETAKRR'
p1164
I312
sS'PDVTVLTSMLTDPSHITAETAK'
p1165
I965
sS'LPCEPEPDVVVVTSMLTDPSHITAE'
p1166
I1531
sS'EPEPDVTVLTSMLTDPSHITAE'
p1167
I962
sS'CEPEPDVVVVTSMLTDPSH'
p1168
I1422
sS'VGSQLPCEPEPDVTVLTSMLTDPSHITAETAKRRL'
p1169
I1101
sS'DPSHITAETARRRLAR'
p1170
I1368
sS'TVLTSMLTDPSHITAETAKRRLARGS'
p1171
I1024
sS'LPCEPEPDVTVLTSMLTDPSHITAETAKR'
p1172
I1054
sS'GSQLPCEPEPDVAVLTSMLTDPSHITAETAK'
p1173
I709
sS'TAKRRLARG'
p1174
I286
sS'PCEPEPDVVVVTSMLTDPSHITAETARRRLA'
p1175
I1607
sS'LPCEPEPDVTVLTSMLTDPSHITAETAK'
p1176
I1042
sS'TDPSHITAETAKRRL'
p1177
I448
sS'GSQLPCEPEPDVTVLTSMLTDPSHITAETAKRRLA'
p1178
I1102
sS'ETARR'
p1179
I1142
sS'SQLPCEPEPDVAVLTSMLTDPSHITAE'
p1180
I664
sS'CEPEPDVAVLTSMLTDPS'
p1181
I506
sS'TVLTSMLTDPSHITAE'
p1182
I884
sS'CEPEPDVTVLTSM'
p1183
I835
sS'PDVVVVTSMLTDPSHIT'
p1184
I1381
sS'PDVVVVTSMLTDPSHITAETARRRLARG'
p1185
I1579
sS'LPCEPEPDVTVLTSMLTDPSHIT'
p1186
I973
sS'TAETAKRRL'
p1187
I283
sS'ARRRLARG'
p1188
I1192
sS'LTDPSHITAETARRRLA'
p1189
I1390
sS'LPCEPEPDVVVVTSMLTDPSHITAETARR'
p1190
I1585
sS'DPSHITA'
p1191
I213
sS'EPDVAVLTSMLTDPSHITAET'
p1192
I572
sS'VGSQLPCEPEPDVAVLTSMLTDPSHIT'
p1193
I662
sS'CEPEPDVAVLT'
p1194
I324
sS'LPCEPEPDVTVLTSMLTDP'
p1195
I917
sS'EPDVTVLTSML'
p1196
I813
sS'LTSMLTDPSHITAETAKRRLAR'
p1197
I597
sS'TVLTSMLTDPSHITA'
p1198
I870
sS'SHITAETAKR'
p1199
I311
sS'GSQLPCE'
p1200
I193
sS'PSHITAETARRRLAR'
p1201
I1344
sS'PCEPEPDVVVVTSMLTDPSHITAETAR'
p1202
I1561
sS'EPDVAVLTSMLTDPSHITAETAKRRL'
p1203
I657
sS'VVVTSMLTDPSHITAET'
p1204
I1384
sS'PDVTVLT'
p1205
I776
sS'GSQLPCEPEPDVAVL'
p1206
I429
sS'LTSMLTDPSHITAETAKR'
p1207
I515
sS'EPEPDVAVLTS'
p1208
I325
sS'TAETAR'
p1209
I1154
sS'AVLTSMLTDPSHITAETAKRRL'
p1210
I595
sS'PEPDVTVLTSMLTDPSHITAETAKRRLARGS'
p1211
I1079
sS'EPDVTVLTSMLTDPSHITAETAKRRL'
p1212
I1020
sS'TDPSHITAETAKRRLA'
p1213
I473
sS'TAETAK'
p1214
I184
sS'VGSQLPCEPEPDVTVLTSMLTDPSHITAETAKRRLA'
p1215
I1106
sS'VGSQLPCEPE'
p1216
I288
sS'PEPDVTVLTS'
p1217
I801
sS'DVVVVTSMLT'
p1218
I1220
sS'QLPCEPEPDVAVLTSMLTDPS'
p1219
I566
sS'VVTSMLTDPSHI'
p1220
I1266
sS'EPDVAVLTSMLTDPSHITAETAK'
p1221
I609
sS'TV'
p1222
I754
sS'LPCEPEPD'
p1223
I229
sS'TS'
p1224
I31
sS'TD'
p1225
I34
sS'MLTDPSHITAETAKRR'
p1226
I471
sS'AB'
p1227
I1654
sS'AE'
p1228
I41
sS'LPCEPEPDVVV'
p1229
I1234
sS'LPCEPEPDVVVVTS'
p1230
I1303
sS'AVLT'
p1231
I100
sS'DVAVLTSMLTDPSHITAETA'
p1232
I554
sS'CEPEPDVVVVTSMLTDPSHITAETARRRL'
p1233
I1587
sS'CEPEPDVAVLTSMLTDP'
p1234
I483
sS'AR'
p1235
I48
sS'AETARR'
p1236
I1155
sS'AV'
p1237
I28
sS'SQLPCEPEPDVVVVTSML'
p1238
I1396
sS'QLPCEPEPDVTVLTS'
p1239
I860
sS'TAKR'
p1240
I116
sS'VLTSMLTDPSH'
p1241
I332
sS'SQLPCEPEPDVVVVTSMLTDPSH'
p1242
I1496
sS'ITAETAKRRLARG'
p1243
I400
sS'PCEPEPDVAVLTSMLTD'
p1244
I482
sS'QLPCEPEPDVAVLTSMLTD'
p1245
I525
sS'TAETA'
p1246
I149
sS'VVVTSMLTD'
p1247
I1202
sS'PEPDVTVLTSM'
p1248
I812
sS'QLPCEPEPDVTV'
p1249
I819
sS'PEPDVAVLTSMLTDPSHIT'
p1250
I530
sS'VGSQLPCEP'
p1251
I257
sS'CEPEPDVTV'
p1252
I789
sS'CEPEP'
p1253
I129
sS'VVVTS'
p1254
I1138
sS'TAKRRLARGS'
p1255
I317
sS'PSHIT'
p1256
I145
sS'PEPDVVVVTSMLTDPSHITAETARRRLA'
p1257
I1577
sS'DVVVVTSMLTDPSHITAETARRR'
p1258
I1505
sS'EPEPDVTVLTSMLTDPSHITAET'
p1259
I976
sS'VGSQLPCEPEPDVAVLTSMLTDPSHITAE'
p1260
I687
sS'RRRLARGS'
p1261
I1193
sS'QLPCEPEPDVAVLTSMLTDPSHITAETAKRRLARGS'
p1262
I746
sS'DPSHITAETA'
p1263
I309
sS'AETARRRL'
p1264
I1189
sS'DPSHITAETARRRLARG'
p1265
I1392
sS'VVVVTSMLTDPSHITAETARRRLAR'
p1266
I1539
sS'P'
p1267
I5
sS'CEPEPDVAVLTSMLTDPSHITAETAK'
p1268
I654
sS'TAETARRRL'
p1269
I1208
sS'EPDVVVVTSMLTDP'
p1270
I1308
sS'TDPSHITAETARRRLARG'
p1271
I1414
sS'SMLTDP'
p1272
I175
sS'QLPCEPEPDVTVLTSMLTDPSHI'
p1273
I972
sS'LAR'
p1274
I84
sS'PCEP'
p1275
I92
sS'EPEPDVT'
p1276
I773
sS'EPEPDVV'
p1277
I1160
sS'EPEPDVA'
p1278
I199
sS'PCEPEPDVVVVTSMLTDPSHITAET'
p1279
I1532
sS'EPDVAVLTSMLTDPSHITA'
p1280
I531
sS'SQLPCEPEPDVTVLTSMLTDPSHITAETAKRRLAR'
p1281
I1103
sS'PCEPEPDVTV'
p1282
I798
sS'PCEPEPDVAVLTSM'
p1283
I407
sS'HITAETAKRRLAR'
p1284
I399
sS'MLTDPSHITAETAKR'
p1285
I446
sS'EPDVAVLTSMLTDP'
p1286
I411
sS'CEPEPDVVVVTSMLTDPSHITAETARR'
p1287
I1562
sS'PCEPEPDVTVLTSMLTDPS'
p1288
I918
sS'DVAV'
p1289
I98
sS'PEPDVA'
p1290
I166
sS'VLTSMLTDPS'
p1291
I302
sS'GSQLPCEPEPDVTVLTSMLTDPSHITAET'
p1292
I1051
sS'CEPEPDVVVVTSMLTDPSHITAETA'
p1293
I1533
sS'SQLPCEPEPDVTVLTSMLTDPSHITAE'
p1294
I1027
sS'PEPDVT'
p1295
I767
sS'PEPDVV'
p1296
I1146
sS'EPDVVVVTSMLTDPSHITAETARRRLAR'
p1297
I1578
sS'SQLPCEPEPDVTVLTSMLTDPSHITAETAKRRLA'
p1298
I1097
sS'GSQLPCEPEPDVA'
p1299
I376
sS'VGSQLPCEPEPD'
p1300
I347
sS'TAETARRRLARG'
p1301
I1274
sS'TARRRLARG'
p1302
I1211
sS'GSQLPCEPEPDVT'
p1303
I830
sS'GSQLPCEPEPDVV'
p1304
I1276
sS'VGSQLPCEPEPDVTVLTSMLTDPSHI'
p1305
I1011
sS'EPDVVVVTSML'
p1306
I1239
sS'LTSML'
p1307
I138
sS'SML'
p1308
I67
sS'PCEPEPDVAVLTSMLTDPSH'
p1309
I548
sS'FG'
p1310
I1649
sS'VVTS'
p1311
I1128
sS'CEPEPDVAVLTSMLTD'
p1312
I459
sS'QLPCEPEPDVVVVTSM'
p1313
I1350
sS'EPEPDVTVLTSMLTDPSHITAETA'
p1314
I990
sS'GSQLPCEPEPDVAVLTS'
p1315
I478
sS'GSQLPCEPEPDVVVVTSMLTDPSHITAETARR'
p1316
I1612
sS'SQLPCEP'
p1317
I194
sS'AVLTSMLTDPSHITAETAKRRLARG'
p1318
I646
sS'PDVAVLTSMLTDP'
p1319
I385
sS'TSMLTDPSHIT'
p1320
I334
sS'TSMLTDPSHITAETARRRLAR'
p1321
I1473
sS'SQLPCEPEPDVAVLTSMLTDPSH'
p1322
I602
sS'RRRL'
p1323
I1133
sS'EPEPDVAVLTSMLTDPSHITAETAKRRLARGS'
p1324
I724
sS'HITAETAKRRL'
p1325
I342
sS'TVLTSMLTDPSHITAETAKRRLA'
p1326
I982
sS'EPDVV'
p1327
I1134
sS'EPDVT'
p1328
I762
sS'MLTDPSHITA'
p1329
I306
sS'EPDVA'
p1330
I132
sS'DPSHITAETAKRRLARG'
p1331
I498
sS'HIT'
p1332
I74
sS'AVLTSMLTDPSHITAETAKRRLAR'
p1333
I630
sS'SQLPCE'
p1334
I160
sS'SHITAETAKRR'
p1335
I341
sS'Q'
p1336
I3
sS'LTDPSHITAETAKRRLARGS'
p1337
I562
sS'VGSQLPCEPEPDVAVLTSMLTDPSHITAETAKRRL'
p1338
I738
sS'QLPCEPEPDVTVLTSMLTDPSHITAETAKRRLA'
p1339
I1091
sS'AVLTSMLTDPSHIT'
p1340
I415
sS'PDVTVLTSMLTDPSHITAE'
p1341
I923
sS'LPCEPEPDVVVVTSMLTDPSHITAETARRRL'
p1342
I1606
sS'PDVVVVTSMLTD'
p1343
I1262
sS'PDVTVLTSMLTDPSHITAETAKRRLARGS'
p1344
I1060
sS'LPCEPEPDVTVLTSMLTDPSHITAETA'
p1345
I1029
sS'SHITAETAK'
p1346
I280
sS'LPCEPEPDVTVLTS'
p1347
I847
sS'SHITAETAR'
p1348
I1205
sS'PCEPEPDVVVVTSM'
p1349
I1304
sS'DVTVLTSMLT'
p1350
I804
sS'VVVVTSMLTDPSHITAETARRR'
p1351
I1488
sS'PCEPEPDVTVLTSMLTDPSHITAETAK'
p1352
I1030
sS'DVTVLTSMLTDPSHITAET'
p1353
I924
sS'VVVVTSMLTDPSHITAET'
p1354
I1406
sS'CEPEPDVV'
p1355
I1176
sS'CEPEPDVT'
p1356
I780
sS'QLPCEPEPDVVVVTSMLTDPSHITA'
p1357
I1530
sS'CEPEPDVA'
p1358
I231
sS'AKRRLA'
p1359
I188
sS'CEPEPDVTVLTSMLTDPSH'
p1360
I919
sS'CEPEPDVAVLTSML'
p1361
I408
sS'VTVLTSMLTDPSHITAETAKRRLA'
p1362
I995
sS'PEPDVTVLTSMLTDPSHITAETAKRRL'
p1363
I1033
sS'PCEPEPDVVVVTSMLTDPSHITAETARRR'
p1364
I1586
sS'VAVLTSMLTD'
p1365
I300
sS'LPC'
p1366
I54
sS'EPDVVVVTSMLTDPS'
p1367
I1332
sS'PDVTVLTSMLTDPSHITAETA'
p1368
I951
sS'QLPCEPEPDVTVLTSMLT'
p1369
I902
sS'PEPDVAVLTS'
p1370
I296
sS'TDPSHITAETAKR'
p1371
I395
sS'LTSMLTDP'
p1372
I240
sS'TSMLTDPSHITAETARRRL'
p1373
I1432
sS'DVTVLTSMLTDPS'
p1374
I840
sS'VGSQLPCEPEPDVAVLTSMLTDPSHITAETAKRRLAR'
p1375
I747
sS'PSHITAETAR'
p1376
I1225
sS'LTDPSHITAETAK'
p1377
I394
sS'ABC'
p1378
I1656
sS'PSHITAETAK'
p1379
I310
sS'EPEPDVVVVT'
p1380
I1216
sS'HITAETAKRRLARG'
p1381
I426
sS'DVTVLTSMLTDPSHIT'
p1382
I882
sS'TVLTSMLTDPSHITAETAK'
p1383
I926
sS'EPDVVVV'
p1384
I1162
sS'MLTDPSHITAETAKRRLARG'
p1385
I561
sS'DVAVLTSMLTDPSHITAETAKRRLARGS'
p1386
I686
sS'DVAVLTSMLT'
p1387
I299
sS'CEP'
p1388
I56
sS'VGSQLPCEPEPDVVVVTSML'
p1389
I1437
sS'PCEPEPDVTVLTSMLTDPSHITA'
p1390
I974
sS'VVVVTSMLTDPSHITAETA'
p1391
I1428
sS'VAVLTSMLTDPSHITAETAKRRL'
p1392
I612
sS'LTDPSHITAETAKRRL'
p1393
I472
sS'PEPDVVVVTSMLTDPS'
p1394
I1355
sS'PCEPEPDVVVVTSMLTDPSHITAETARRRLARG'
p1395
I1624
sS'LTDPSHITAETARRRLAR'
p1396
I1413
sS'VLTSML'
p1397
I172
sS'LPCEPEPDVTVLTSMLTDPSH'
p1398
I945
sS'DVVVVT'
p1399
I1149
sS'ETARRRLA'
p1400
I1190
sS'PEPDVTVLTSMLTDPSHITAETA'
p1401
I977
sS'ITAETAKR'
p1402
I250
sS'SQLPCEPEPDVVVVTSMLTDPSHITAETARRR'
p1403
I1613
sS'VLTSMLTDPSHITAETAKR'
p1404
I536
sS'QLPCEPE'
p1405
I195
sS'TSMLTDPSHI'
p1406
I304
sS'GSQLPCEPEPDVAVLTSMLTDPSHITAETAKRRLA'
p1407
I739
sS'LTSMLTDPSHITAETA'
p1408
I468
sS'EPEPDVVVVTSMLTDPSHITAE'
p1409
I1483
sS'CEPEPDVVVVTSMLTDPSHITAETARRRLA'
p1410
I1598
sS'GSQLPCEPEPDVVVVTSMLTDPSHIT'
p1411
I1543
sS'TSMLTDPSHITAETARRRLARG'
p1412
I1492
sS'GSQLPCEPEP'
p1413
I289
sS'DVAVLTSMLTDPSHITAETAK'
p1414
I574
sS'DPSHITAET'
p1415
I278
sS'R'
p1416
I15
sS'AETA'
p1417
I114
sS'TVLTSML'
p1418
I779
sS'GSQLPCEPEPDVTVLTS'
p1419
I886
sS'SQLPC'
p1420
I125
sS'LPCEPEPDVTVLTSMLTDPSHITAETAKRRLAR'
p1421
I1092
sS'VVVTSMLTDPSHITAETARRRL'
p1422
I1489
sS'SHITAET'
p1423
I215
sS'SQLPCEPEPDVAVLTSMLTDPSHITAETAK'
p1424
I700
sS'ITA'
p1425
I75
sS'KR'
p1426
I44
sS'TARRRLARGS'
p1427
I1232
sS'EPDVTVLTSMLTDPS'
p1428
I866
sS'AVLTSMLTD'
p1429
I270
sS'TDPSHITAETARRRLARGS'
p1430
I1436
sS'GSQLPCEP'
p1431
I226
sS'SQLPCEPE'
p1432
I227
sS'PCEPEPDVAVLTSMLTDPS'
p1433
I527
sS'VLTSMLTD'
p1434
I239
sS'SQLPCEPEPDVAVLTSMLTDPSHITAETAKRRLARGS'
p1435
I749
sS'GSQLPCEPEPDVVVVTSMLTDPSHITAETAR'
p1436
I1603
sS'LPCEPEPDVAVLT'
p1437
I379
sS'CEPEPDVAVLTSMLTDPSHITAETAKRRLA'
p1438
I704
sS'PCEPEPDVVVVTSMLTDP'
p1439
I1399
sS'PDVTVLTSMLTDPSHITAET'
p1440
I937
sS'TDPSHITAETAR'
p1441
I1268
sS'EPDVAVLTSMLTDPSH'
p1442
I462
sS'LPCEPEPDVTVLTSMLTDPSHITAE'
p1443
I1001
sS'TDPSHITAETAK'
p1444
I367
sS'PEPDVVVVTSMLTDPSHITAET'
p1445
I1484
sS'EPEPDVTVLTSML'
p1446
I836
sS'LPCEPEPDVT'
p1447
I797
sS'LPCEPEPDVV'
p1448
I1213
sS'VVVVTSMLTDPSHITAETARRRLARGS'
p1449
I1568
sS'VGSQLPCEPEPDVVVVTSMLTDPSHIT'
p1450
I1556
sS'QLPCEPEPDVAVL'
p1451
I378
sS'LPCEPEPDVA'
p1452
I292
sS'VTSMLTDPSHITA'
p1453
I1290
sS'GSQLPCEPEPDVTVLTSMLTDPSHITAETAK'
p1454
I1072
sS'SMLTDPSHITAETAK'
p1455
I445
sS'EPDVVVVTSMLTDPSHITAET'
p1456
I1466
sS'VTVLTSMLT'
p1457
I795
sS'GSQLPCEPEPDVTVLTSMLTDPSHITA'
p1458
I1026
sS'GSQLPCEPEPDVTVLTSMLTDPSH'
p1459
I984
sS'LTDPSHITAETA'
p1460
I366
sS'LTSMLTDPSHITAETAKRRL'
p1461
I558
sS'SMLTDPSHITAETAR'
p1462
I1339
sS'DVVVVTSMLTDPSHITAETARRRL'
p1463
I1522
sS'TVLTSMLTDPSHITAETAKR'
p1464
I940
sS'EPDVAVLTS'
p1465
I266
sS'SQLPCEPEPDVVVVTSMLTDPSHIT'
p1466
I1529
sS'TA'
p1467
I40
sS'TSMLTDPSH'
p1468
I273
sS'ETAKRRLARG'
p1469
I316
sS'VVVTSMLTDPSHITAE'
p1470
I1360
sS'QLPCEPEPDVTVLTSMLTDPSHITAETAKR'
p1471
I1064
sS'EPDVAVLTSMLTDPSHI'
p1472
I486
sS'LTSMLTDPSH'
p1473
I303
sS'VTVLTSML'
p1474
I786
sS'CEPEPDVAVLTSMLTDPSHITAETAKRRLAR'
p1475
I714
sS'QLPCEPEPDVTVLTSMLTDPSHITAETAK'
p1476
I1053
sS'PEPDVAVLTSMLTDPSHITAET'
p1477
I590
sS'VGSQLPCEPEPDVVVVTSMLTDPSH'
p1478
I1527
sS'PDVAVLTSMLT'
p1479
I328
sS'PCEPEPDVVVVT'
p1480
I1257
sS'MLTDPSHI'
p1481
I243
sS'RRLARG'
p1482
I190
sS'VLTSMLTDPSHITAETAK'
p1483
I514
sS'ETARRRL'
p1484
I1172
sS'SQLPCEPEPDVTVLTSMLTDPSHITAET'
p1485
I1040
sS'DVVVVTSMLTDPSHITAETA'
p1486
I1448
sS'VTVLTSMLTDPSHITAET'
p1487
I911
sS'DVAVLTSMLTD'
p1488
I329
sS'LPCEPEPDVTV'
p1489
I808
sS'PCEPEPDVAVLTSMLTDPSHITAE'
p1490
I622
sS'DPSHITAETARRRLARGS'
p1491
I1415
sS'PEPDVAVLTSMLTDPS'
p1492
I461
sS'PDVAVLTSMLTDPSHITAET'
p1493
I553
sS'EPEPDVAVLTSMLTDPSHITAET'
p1494
I607
sS'PS'
p1495
I36
sS'PC'
p1496
I21
sS'SMLTDPSHITAETAKRRLARG'
p1497
I580
sS'PD'
p1498
I25
sS'AVLTSMLTDPSHITAETAKR'
p1499
I556
sS'GSQLPCEPEPDVVVVTSMLTDPS'
p1500
I1495
sS'PCEPEPDVTVLT'
p1501
I821
sS'EPEPDVTVLTSMLTDPSHITAETAKRRL'
p1502
I1045
sS'DVAVLTSMLTDPSHITAETAKRRLA'
p1503
I644
sS'VGSQL'
p1504
I123
sS'PCEPEP'
p1505
I163
sS'TVLTSMLT'
p1506
I787
sS'EFG'
p1507
I1650
sS'PDVVVVTSMLTDPSHI'
p1508
I1357
sS'PSHITAETAKR'
p1509
I340
sS'CEPEPDVVVVTSM'
p1510
I1281
sS'LPCEPEPDVAVLTSMLTDPS'
p1511
I547
sS'PDVTVLTSMLTDPS'
p1512
I853
sS'EPEPDVAVLTSMLTDPS'
p1513
I484
sS'MLTDPSHITAETAK'
p1514
I420
sS'CEPEPDVVVVTSMLTDPSHITAET'
p1515
I1517
sS'EPDVVVVTSMLTDPSHITAETARRRLA'
p1516
I1565
sS'DVA'
p1517
I61
sS'PSHITAETARRRLA'
p1518
I1319
sS'QLPCEPEPDVAVLTSMLTDPSHITAETAK'
p1519
I690
sS'DVT'
p1520
I755
sS'DVV'
p1521
I1117
sS'PEPDVVVVTSMLTDPSHITA'
p1522
I1445
sS'LPCEPEPDVVVVTSMLTD'
p1523
I1398
sS'VVTSMLTDPSHITAETARRRLARG'
p1524
I1525
sS'LTSMLTDPS'
p1525
I272
sS'GSQLPCEPEPDVVV'
p1526
I1300
sS'GSQLPCEPEPDVVVVT'
p1527
I1348
sS'QLPCEPEPDVAVLTSMLTDPSH'
p1528
I585
sS'PDVVVVTSMLTDPSHITAE'
p1529
I1426
sS'LTSMLTDPSHITAETAKRRLARG'
p1530
I615
sS'LPCEPEPDVAVLTSMLTDPSHITAETAKRRLA'
p1531
I721
sS'LPCEPEPDVVVVT'
p1532
I1279
sS'EPDVVVVTSMLTDPSHITAETARRRL'
p1533
I1551
sS'EPEPDV'
p1534
I165
sS'VTVLTSMLTDPSHITAETAKRRLARG'
p1535
I1023
sS'EPEPDVVVVTSM'
p1536
I1259
sS'LPCEPEPDVVVVTSMLTDPSHITA'
p1537
I1515
sS'SQLPCEPEP'
p1538
I259
sS'PDVTVLTSMLTDP'
p1539
I839
sS'LTDPSHITAE'
p1540
I307
sS'GSQLPCEPEPDVVVVTSMLTDPSHITAETA'
p1541
I1593
sS'TDPSHI'
p1542
I178
sS'SMLTDPSHITAETAKRRLARGS'
p1543
I599
sS'SHITAETAKRRLARG'
p1544
I451
sS'DVAVLTSM'
p1545
I236
sS'TVLTSMLTDPSHI'
p1546
I842
sS'PEPDVTVL'
p1547
I782
sS'VGSQLPCEPEPDVVVVT'
p1548
I1371
sS'GSQLPCEPEPDVAVLTSMLTDPSH'
p1549
I618
sS'DPSHI'
p1550
I144
sS'PCEPEPDVAVLTSMLTDPSHIT'
p1551
I587
sS'VGSQLPCEPEPDVAVLTSMLTDPSHITAETAKR'
p1552
I725
sS'ARR'
p1553
I1122
sS'MLTDP'
p1554
I141
sS'GSQLPCEPEPDVVVVTSMLTDPSHITAE'
p1555
I1570
sS'MLTDPSHITAETARRR'
p1556
I1365
sS'ARG'
p1557
I85
sS'EPDVTVLTSMLTDPSHITA'
p1558
I922
sS'PCEPEPDVVVVTS'
p1559
I1280
sS'GSQ'
p1560
I51
sS'QLPCEPEPDVTVLTSMLTDPS'
p1561
I944
sS'DVVVVTSMLTDPSHITAETARR'
p1562
I1487
sS'BC'
p1563
I1655
sS'QLPCEPEPDVVVVTS'
p1564
I1326
sS'EPDVAV'
p1565
I167
sS'VGSQLPCEPEPDVVVVTSMLTDPS'
p1566
I1511
sS'GSQLPCEPEPDVTVLTSMLTDP'
p1567
I956
sS'VLTSMLTDPSHIT'
p1568
I389
sS'EPEPDVVVVTSMLTDPSHITAETARRRLARGS'
p1569
I1618
sS'PSHITAETARRRLARG'
p1570
I1369
sS'LPCEPEPDVTVLTSMLTDPSHITAETAKRR'
p1571
I1065
sS'VVTSMLTDPSHITAETA'
p1572
I1385
sS'PDVAVLTSMLTDPSHITAETAKR'
p1573
I610
sS'PCEPEPDVTVLTSMLTDPSHIT'
p1574
I960
sS'VGSQLPCEPEPDVTVL'
p1575
I871
sS'GSQLPCEPEPDVAVLTSMLT'
p1576
I544
sS'VGSQLPCEPEPDVVVV'
p1577
I1347
sS'TDPS'
p1578
I107
sS'QLPCEPEPDVT'
p1579
I807
sS'PDVAV'
p1580
I133
sS'QLPCEPEPDVV'
p1581
I1233
sS'VVVVTS'
p1582
I1150
sS'T'
p1583
I10
sS'QLPCEPEPDVA'
p1584
I321
sS'AETAKRR'
p1585
I219
sS'RLAR'
p1586
I120
sS'PCEPEPDVAVLTSMLTDPSHITAETAKRR'
p1587
I692
sS'QLPCEPEPDVVVVT'
p1588
I1302
sS'ETA'
p1589
I78
sS'VTVLTSMLTDPSHITAE'
p1590
I897
sS'TSMLTDPSHITAETA'
p1591
I444
sS'SQL'
p1592
I52
sS'EPEPDVAVLTSMLTDPSH'
p1593
I507
sS'SMLTDPSHITAET'
p1594
I392
sS'ARGS'
p1595
I122
sS'VVVVTSM'
p1596
I1165
sS'DVVVVTSMLTDPSHITAETARRRLARGS'
p1597
I1580
sS'SHITAETAKRRLA'
p1598
I398
sS'EPDVVVVTSMLTD'
p1599
I1284
sS'QLPCEPEPDVTVLTSMLTDPSHITAETA'
p1600
I1041
sS'VGSQLPCEPEPDVVVVTSMLTDPSHITAETARRRLAR'
p1601
I1641
sS'LPCEPEP'
p1602
I196
sS'EPEPDVTVL'
p1603
I790
sS'VGSQLPCEPEPDVVVVTSMLTDPSHITAE'
p1604
I1581
sS'LTSMLTD'
p1605
I207
sS'GSQLPCEPEPDVTVLTSMLTDPS'
p1606
I970
sS'KRRLARGS'
p1607
I256
sS'AVLTSMLTDPSHITA'
p1608
I441
sS'SQLPCEPEPD'
p1609
I290
sS'LTDPSHIT'
p1610
I244
sS'DVAVLTSMLTDPSHITAE'
p1611
I511
sS'LPCEPEPDVTVLTSMLT'
p1612
I889
sS'DVAVLT'
p1613
I169
sS'PDVAVLTS'
p1614
I235
sS'LPCEPEPDVAVLTSMLTDPSHITAETAK'
p1615
I679
sS'GSQLPCEPEPDVAVLTSM'
p1616
I501
sS'EPDVAVLTSML'
p1617
I327
sS'EPDVVVVTSMLT'
p1618
I1261
sS'DVTVLTSMLTDPSHITAETAK'
p1619
I952
sS'DPSHITAETAKRR'
p1620
I396
sS'TDPSH'
p1621
I143
sS'VGSQLPCEPEPDVVVVTSMLTDPSHITAETARRRLARGS'
p1622
I1646
sS'PDVAVLTSMLTDPSHITAETAKRRLARGS'
p1623
I697
sS'ITAETARRR'
p1624
I1207
sS'MLTDPSHITAETAKRRLAR'
p1625
I540
sS'GSQLPCEPEPDVVVVTS'
p1626
I1372
sS'PDVAVLTSMLTD'
p1627
I357
sS'EPEPDVTVLTSMLT'
p1628
I850
sS'GSQLPCEPEPDVTVLTSMLTDPSHITAETAKRRLAR'
p1629
I1107
sS'VVVTSML'
p1630
I1166
sS'EPDVTVL'
p1631
I775
sS'EPDVVVVTS'
p1632
I1198
sS'EPEPDVVVV'
p1633
I1196
sS'PCEPEPD'
p1634
I197
sS'VTSMLTDPSHITAETARRRLA'
p1635
I1472
sS'SMLTDPSHITAETARRR'
p1636
I1388
sS'VGSQLPCEPEPDVTVLTSMLT'
p1637
I941
sS'LPCEPEPDVVVVTSMLTDPSHITAETARRR'
p1638
I1596
sS'SQLPCEPEPDVTVLTSMLTDPSH'
p1639
I971
sS'SQLPCEPEPDVTVLTSMLTDPSHITAETAKRRL'
p1640
I1090
sS'PCEPEPDVAVLTSMLTDPSHITA'
p1641
I605
sS'PCEPEPDVAVLTSMLTDPSHITAETAKR'
p1642
I680
sS'LPCEPEPDVVVVTSMLTDPSH'
p1643
I1461
sS'TSMLTDPSHITAETAKRRLA'
p1644
I559
sS'GSQLPCEPEPDVAVLTSMLTD'
p1645
I564
sS'PCEPEPDVVVVTSMLTD'
p1646
I1376
sS'CEPEPDVVVVTSMLTDPSHITAETARRRLAR'
p1647
I1608
sS'AVLTSMLT'
p1648
I238
sS'LPCEPEPDVAVLTSMLTDPSHITAETAKRRL'
p1649
I712
sS'SQLPCEPEPDVAVLTSMLTDPSHITAETA'
p1650
I689
sS'LTDPSHITAETARRRLARG'
p1651
I1435
sS'PEPDVAVLTSMLTDPSHITAE'
p1652
I571
sS'PEPDVAVL'
p1653
I233
sS'PDVAVLTSMLTDPSHITAETAKRRLAR'
p1654
I672
sS'TSMLTDPSHITA'
p1655
I363
sS'PCEPEPDVAVLTSMLTDP'
p1656
I505
sS'VGSQLPCEPEPDVTVLTS'
p1657
I899
sS'SQLPCEPEPDVVVVTSMLTDPSHITAETARRRLARGS'
p1658
I1643
sS'VTSMLT'
p1659
I1153
sS'QLPCEPEPDVTVLTSMLTDPSHITAETAKRRLAR'
p1660
I1098
sS'GSQLPCEPEPDVTVLTSMLTDPSHI'
p1661
I998
s.